---
triple:          'x86_64-apple-darwin'
binary-path:     '/Users/angigyeom/Desktop/C:C++/balatro_optimized_score/balatro_2/balatro'
relocations:
  - { offsetInCU: 0x5C, offset: 0x5C, size: 0x8, addend: 0x0, symName: __ZNSt3__1L19piecewise_constructE, symObjAddr: 0x9B54, symBinAddr: 0x10000BCD4, symSize: 0x0 }
  - { offsetInCU: 0xB363, offset: 0xB363, size: 0x8, addend: 0x0, symName: __ZNSt3__17advanceB7v160006IPKimmvEEvRT_T0_, symObjAddr: 0x4E30, symBinAddr: 0x100006DD0, symSize: 0x50 }
  - { offsetInCU: 0xB47E, offset: 0xB47E, size: 0x8, addend: 0x0, symName: __ZNSt3__124__put_character_sequenceB7v160006IcNS_11char_traitsIcEEEERNS_13basic_ostreamIT_T0_EES7_PKS4_m, symObjAddr: 0x8E20, symBinAddr: 0x10000ADC0, symSize: 0x1F0 }
  - { offsetInCU: 0xCFF6, offset: 0xCFF6, size: 0x8, addend: 0x0, symName: __ZNSt3__1neB7v160006ERKNS_14__map_iteratorINS_15__tree_iteratorINS_12__value_typeINS_12basic_stringIcNS_11char_traitsIcEENS_9allocatorIcEEEEiEEPNS_11__tree_nodeIS9_PvEElEEEESH_, symObjAddr: 0x1E70, symBinAddr: 0x100003E10, symSize: 0x30 }
  - { offsetInCU: 0xD033, offset: 0xD033, size: 0x8, addend: 0x0, symName: __ZNSt3__1lsB7v160006INS_11char_traitsIcEEEERNS_13basic_ostreamIcT_EES6_PKc, symObjAddr: 0x1ED0, symBinAddr: 0x100003E70, symSize: 0x40 }
  - { offsetInCU: 0xD079, offset: 0xD079, size: 0x8, addend: 0x0, symName: __ZNSt3__1lsB7v160006IcNS_11char_traitsIcEENS_9allocatorIcEEEERNS_13basic_ostreamIT_T0_EES9_RKNS_12basic_stringIS6_S7_T1_EE, symObjAddr: 0x1F10, symBinAddr: 0x100003EB0, symSize: 0x50 }
  - { offsetInCU: 0xD0D1, offset: 0xD0D1, size: 0x8, addend: 0x0, symName: __ZNSt3__14endlB7v160006IcNS_11char_traitsIcEEEERNS_13basic_ostreamIT_T0_EES7_, symObjAddr: 0x1F80, symBinAddr: 0x100003F20, symSize: 0x50 }
  - { offsetInCU: 0xD17B, offset: 0xD17B, size: 0x8, addend: 0x0, symName: __ZNSt3__116forward_as_tupleB7v160006IJNS_12basic_stringIcNS_11char_traitsIcEENS_9allocatorIcEEEEEEENS_5tupleIJDpOT_EEESA_, symObjAddr: 0x2850, symBinAddr: 0x1000047F0, symSize: 0x30 }
  - { offsetInCU: 0xD1B4, offset: 0xD1B4, size: 0x8, addend: 0x0, symName: __ZNSt3__116forward_as_tupleB7v160006IJEEENS_5tupleIJDpOT_EEES4_, symObjAddr: 0x2880, symBinAddr: 0x100004820, symSize: 0x10 }
  - { offsetInCU: 0xD1D8, offset: 0xD1D8, size: 0x8, addend: 0x0, symName: __ZNSt3__1ltB7v160006IcNS_11char_traitsIcEENS_9allocatorIcEEEEbRKNS_12basic_stringIT_T0_T1_EESB_, symObjAddr: 0x2EF0, symBinAddr: 0x100004E90, symSize: 0x30 }
  - { offsetInCU: 0xD254, offset: 0xD254, size: 0x8, addend: 0x0, symName: __ZNSt3__13minB7v160006ImEERKT_S3_S3_, symObjAddr: 0x31C0, symBinAddr: 0x100005160, symSize: 0x30 }
  - { offsetInCU: 0xD297, offset: 0xD297, size: 0x8, addend: 0x0, symName: __ZNSt3__118__constexpr_memcmpB7v160006IcEEiPKT_S3_m, symObjAddr: 0x32A0, symBinAddr: 0x100005240, symSize: 0x30 }
  - { offsetInCU: 0xD2E8, offset: 0xD2E8, size: 0x8, addend: 0x0, symName: __ZNSt3__112__to_addressB7v160006IKcEEPT_S3_, symObjAddr: 0x32D0, symBinAddr: 0x100005270, symSize: 0x10 }
  - { offsetInCU: 0xD350, offset: 0xD350, size: 0x8, addend: 0x0, symName: __ZNSt3__13minB7v160006ImNS_6__lessImmEEEERKT_S5_S5_T0_, symObjAddr: 0x3390, symBinAddr: 0x100005330, symSize: 0x50 }
  - { offsetInCU: 0xD3E5, offset: 0xD3E5, size: 0x8, addend: 0x0, symName: __ZNSt3__17launderB7v160006IKNS_4pairIKNS_12basic_stringIcNS_11char_traitsIcEENS_9allocatorIcEEEENS_6vectorIiNS5_IiEEEEEEEEPT_SF_, symObjAddr: 0x3490, symBinAddr: 0x100005430, symSize: 0x20 }
  - { offsetInCU: 0xD41C, offset: 0xD41C, size: 0x8, addend: 0x0, symName: __ZNSt3__19__launderB7v160006IKNS_4pairIKNS_12basic_stringIcNS_11char_traitsIcEENS_9allocatorIcEEEENS_6vectorIiNS5_IiEEEEEEEEPT_SF_, symObjAddr: 0x34B0, symBinAddr: 0x100005450, symSize: 0x10 }
  - { offsetInCU: 0xD471, offset: 0xD471, size: 0x8, addend: 0x0, symName: __ZNSt3__117__libcpp_allocateB7v160006Emm, symObjAddr: 0x3700, symBinAddr: 0x1000056A0, symSize: 0x60 }
  - { offsetInCU: 0xD4CB, offset: 0xD4CB, size: 0x8, addend: 0x0, symName: __ZNSt3__124__is_overaligned_for_newB7v160006Em, symObjAddr: 0x3780, symBinAddr: 0x100005720, symSize: 0x20 }
  - { offsetInCU: 0xD4F9, offset: 0xD4F9, size: 0x8, addend: 0x0, symName: __ZNSt3__121__libcpp_operator_newB7v160006IJmSt11align_val_tEEEPvDpT_, symObjAddr: 0x37A0, symBinAddr: 0x100005740, symSize: 0x30 }
  - { offsetInCU: 0xD546, offset: 0xD546, size: 0x8, addend: 0x0, symName: __ZNSt3__121__libcpp_operator_newB7v160006IJmEEEPvDpT_, symObjAddr: 0x37D0, symBinAddr: 0x100005770, symSize: 0x20 }
  - { offsetInCU: 0xD58A, offset: 0xD58A, size: 0x8, addend: 0x0, symName: __ZNSt3__13getB7v160006ILm0EJONS_12basic_stringIcNS_11char_traitsIcEENS_9allocatorIcEEEEEEERNS_13tuple_elementIXT_ENS_5tupleIJDpT0_EEEE4typeERSC_, symObjAddr: 0x3A20, symBinAddr: 0x1000059C0, symSize: 0x20 }
  - { offsetInCU: 0xD5CD, offset: 0xD5CD, size: 0x8, addend: 0x0, symName: __ZNSt3__119__debug_db_insert_cB7v160006INS_12basic_stringIcNS_11char_traitsIcEENS_9allocatorIcEEEEEEvPT_, symObjAddr: 0x3B90, symBinAddr: 0x100005B30, symSize: 0x10 }
  - { offsetInCU: 0xD5FE, offset: 0xD5FE, size: 0x8, addend: 0x0, symName: __ZNSt3__115__debug_db_swapB7v160006INS_12basic_stringIcNS_11char_traitsIcEENS_9allocatorIcEEEEEEvPT_S8_, symObjAddr: 0x3BA0, symBinAddr: 0x100005B40, symSize: 0x10 }
  - { offsetInCU: 0xD63D, offset: 0xD63D, size: 0x8, addend: 0x0, symName: __ZNSt3__119__debug_db_insert_cB7v160006INS_6vectorIiNS_9allocatorIiEEEEEEvPT_, symObjAddr: 0x3C70, symBinAddr: 0x100005C10, symSize: 0x10 }
  - { offsetInCU: 0xD66E, offset: 0xD66E, size: 0x8, addend: 0x0, symName: __ZNSt3__127__tree_balance_after_insertB7v160006IPNS_16__tree_node_baseIPvEEEEvT_S5_, symObjAddr: 0x3D90, symBinAddr: 0x100005D30, symSize: 0x320 }
  - { offsetInCU: 0xD6EA, offset: 0xD6EA, size: 0x8, addend: 0x0, symName: __ZNSt3__120__tree_is_left_childB7v160006IPNS_16__tree_node_baseIPvEEEEbT_, symObjAddr: 0x40F0, symBinAddr: 0x100006090, symSize: 0x30 }
  - { offsetInCU: 0xD71F, offset: 0xD71F, size: 0x8, addend: 0x0, symName: __ZNSt3__118__tree_left_rotateB7v160006IPNS_16__tree_node_baseIPvEEEEvT_, symObjAddr: 0x4120, symBinAddr: 0x1000060C0, symSize: 0xD0 }
  - { offsetInCU: 0xD761, offset: 0xD761, size: 0x8, addend: 0x0, symName: __ZNSt3__119__tree_right_rotateB7v160006IPNS_16__tree_node_baseIPvEEEEvT_, symObjAddr: 0x41F0, symBinAddr: 0x100006190, symSize: 0xC0 }
  - { offsetInCU: 0xD7A3, offset: 0xD7A3, size: 0x8, addend: 0x0, symName: __ZNSt3__118__debug_db_erase_cB7v160006INS_6vectorIiNS_9allocatorIiEEEEEEvPT_, symObjAddr: 0x46E0, symBinAddr: 0x100006680, symSize: 0x10 }
  - { offsetInCU: 0xD7D4, offset: 0xD7D4, size: 0x8, addend: 0x0, symName: __ZNSt3__112__to_addressB7v160006IiEEPT_S2_, symObjAddr: 0x47F0, symBinAddr: 0x100006790, symSize: 0x10 }
  - { offsetInCU: 0xD809, offset: 0xD809, size: 0x8, addend: 0x0, symName: __ZNSt3__119__libcpp_deallocateB7v160006EPvmm, symObjAddr: 0x4900, symBinAddr: 0x1000068A0, symSize: 0x60 }
  - { offsetInCU: 0xD86E, offset: 0xD86E, size: 0x8, addend: 0x0, symName: __ZNSt3__127__do_deallocate_handle_sizeB7v160006IJSt11align_val_tEEEvPvmDpT_, symObjAddr: 0x4960, symBinAddr: 0x100006900, symSize: 0x30 }
  - { offsetInCU: 0xD8C1, offset: 0xD8C1, size: 0x8, addend: 0x0, symName: __ZNSt3__127__do_deallocate_handle_sizeB7v160006IJEEEvPvmDpT_, symObjAddr: 0x4990, symBinAddr: 0x100006930, symSize: 0x20 }
  - { offsetInCU: 0xD8FF, offset: 0xD8FF, size: 0x8, addend: 0x0, symName: __ZNSt3__124__libcpp_operator_deleteB7v160006IJPvSt11align_val_tEEEvDpT_, symObjAddr: 0x49B0, symBinAddr: 0x100006950, symSize: 0x30 }
  - { offsetInCU: 0xD948, offset: 0xD948, size: 0x8, addend: 0x0, symName: __ZNSt3__124__libcpp_operator_deleteB7v160006IJPvEEEvDpT_, symObjAddr: 0x49E0, symBinAddr: 0x100006980, symSize: 0x20 }
  - { offsetInCU: 0xD9D4, offset: 0xD9D4, size: 0x8, addend: 0x0, symName: __ZNSt3__17launderB7v160006INS_4pairIKNS_12basic_stringIcNS_11char_traitsIcEENS_9allocatorIcEEEENS_6vectorIiNS5_IiEEEEEEEEPT_SE_, symObjAddr: 0x4C30, symBinAddr: 0x100006BD0, symSize: 0x20 }
  - { offsetInCU: 0xDA0B, offset: 0xDA0B, size: 0x8, addend: 0x0, symName: __ZNSt3__19__launderB7v160006INS_4pairIKNS_12basic_stringIcNS_11char_traitsIcEENS_9allocatorIcEEEENS_6vectorIiNS5_IiEEEEEEEEPT_SE_, symObjAddr: 0x4C50, symBinAddr: 0x100006BF0, symSize: 0x10 }
  - { offsetInCU: 0xDA42, offset: 0xDA42, size: 0x8, addend: 0x0, symName: __ZNSt3__18distanceB7v160006IPKiEENS_15iterator_traitsIT_E15difference_typeES4_S4_, symObjAddr: 0x4E00, symBinAddr: 0x100006DA0, symSize: 0x30 }
  - { offsetInCU: 0xDA85, offset: 0xDA85, size: 0x8, addend: 0x0, symName: __ZNSt3__14copyB7v160006IPKiPiEET0_T_S5_S4_, symObjAddr: 0x4E80, symBinAddr: 0x100006E20, symSize: 0x40 }
  - { offsetInCU: 0xDADF, offset: 0xDADF, size: 0x8, addend: 0x0, symName: __ZNSt3__125__debug_db_invalidate_allB7v160006INS_6vectorIiNS_9allocatorIiEEEEEEvPT_, symObjAddr: 0x5170, symBinAddr: 0x100007110, symSize: 0x10 }
  - { offsetInCU: 0xDB10, offset: 0xDB10, size: 0x8, addend: 0x0, symName: __ZNSt3__110__distanceB7v160006IPKiEENS_15iterator_traitsIT_E15difference_typeES4_S4_NS_26random_access_iterator_tagE, symObjAddr: 0x5180, symBinAddr: 0x100007120, symSize: 0x20 }
  - { offsetInCU: 0xDB5D, offset: 0xDB5D, size: 0x8, addend: 0x0, symName: __ZNSt3__121__convert_to_integralB7v160006Em, symObjAddr: 0x51A0, symBinAddr: 0x100007140, symSize: 0x10 }
  - { offsetInCU: 0xDB89, offset: 0xDB89, size: 0x8, addend: 0x0, symName: __ZNSt3__19__advanceB7v160006IPKiEEvRT_NS_15iterator_traitsIS3_E15difference_typeENS_26random_access_iterator_tagE, symObjAddr: 0x51B0, symBinAddr: 0x100007150, symSize: 0x20 }
  - { offsetInCU: 0xDBD2, offset: 0xDBD2, size: 0x8, addend: 0x0, symName: __ZNSt3__16__copyB7v160006INS_17_ClassicAlgPolicyEPKiS3_PiEENS_4pairIT0_T2_EES6_T1_S7_, symObjAddr: 0x51D0, symBinAddr: 0x100007170, symSize: 0x40 }
  - { offsetInCU: 0xDC3E, offset: 0xDC3E, size: 0x8, addend: 0x0, symName: __ZNSt3__123__dispatch_copy_or_moveB7v160006INS_17_ClassicAlgPolicyENS_11__copy_loopIS1_EENS_14__copy_trivialEPKiS6_PiEENS_4pairIT2_T4_EES9_T3_SA_, symObjAddr: 0x5210, symBinAddr: 0x1000071B0, symSize: 0x40 }
  - { offsetInCU: 0xDCBC, offset: 0xDCBC, size: 0x8, addend: 0x0, symName: __ZNSt3__121__unwrap_and_dispatchB7v160006INS_10__overloadINS_11__copy_loopINS_17_ClassicAlgPolicyEEENS_14__copy_trivialEEEPKiS8_PiLi0EEENS_4pairIT0_T2_EESB_T1_SC_, symObjAddr: 0x5250, symBinAddr: 0x1000071F0, symSize: 0xB0 }
  - { offsetInCU: 0xDD4B, offset: 0xDD4B, size: 0x8, addend: 0x0, symName: __ZNSt3__114__unwrap_rangeB7v160006IPKiS2_EENS_4pairIT0_S4_EET_S6_, symObjAddr: 0x5300, symBinAddr: 0x1000072A0, symSize: 0x50 }
  - { offsetInCU: 0xDEE0, offset: 0xDEE0, size: 0x8, addend: 0x0, symName: __ZNSt3__113__unwrap_iterB7v160006IPiNS_18__unwrap_iter_implIS1_Lb1EEELi0EEEDTclsrT0_8__unwrapclsr3stdE7declvalIT_EEEES5_, symObjAddr: 0x5390, symBinAddr: 0x100007330, symSize: 0x20 }
  - { offsetInCU: 0xDF24, offset: 0xDF24, size: 0x8, addend: 0x0, symName: __ZNSt3__19make_pairB7v160006IPKiPiEENS_4pairINS_18__unwrap_ref_decayIT_E4typeENS5_IT0_E4typeEEEOS6_OS9_, symObjAddr: 0x53B0, symBinAddr: 0x100007350, symSize: 0x30 }
  - { offsetInCU: 0xDF73, offset: 0xDF73, size: 0x8, addend: 0x0, symName: __ZNSt3__114__rewrap_rangeB7v160006IPKiS2_EET_S3_T0_, symObjAddr: 0x53E0, symBinAddr: 0x100007380, symSize: 0x30 }
  - { offsetInCU: 0xDFBF, offset: 0xDFBF, size: 0x8, addend: 0x0, symName: __ZNSt3__113__rewrap_iterB7v160006IPiS1_NS_18__unwrap_iter_implIS1_Lb1EEEEET_S4_T0_, symObjAddr: 0x5410, symBinAddr: 0x1000073B0, symSize: 0x40 }
  - { offsetInCU: 0xE014, offset: 0xE014, size: 0x8, addend: 0x0, symName: __ZNSt3__19make_pairB7v160006IPKiS2_EENS_4pairINS_18__unwrap_ref_decayIT_E4typeENS4_IT0_E4typeEEEOS5_OS8_, symObjAddr: 0x5450, symBinAddr: 0x1000073F0, symSize: 0x30 }
  - { offsetInCU: 0xE063, offset: 0xE063, size: 0x8, addend: 0x0, symName: __ZNSt3__113__unwrap_iterB7v160006IPKiNS_18__unwrap_iter_implIS2_Lb1EEELi0EEEDTclsrT0_8__unwrapclsr3stdE7declvalIT_EEEES6_, symObjAddr: 0x5480, symBinAddr: 0x100007420, symSize: 0x20 }
  - { offsetInCU: 0xE1CE, offset: 0xE1CE, size: 0x8, addend: 0x0, symName: __ZNSt3__112__to_addressB7v160006IKiEEPT_S3_, symObjAddr: 0x5520, symBinAddr: 0x1000074C0, symSize: 0x10 }
  - { offsetInCU: 0xE203, offset: 0xE203, size: 0x8, addend: 0x0, symName: __ZNSt3__119__copy_trivial_implB7v160006IKiiEENS_4pairIPT_PT0_EES4_S4_S6_, symObjAddr: 0x5530, symBinAddr: 0x1000074D0, symSize: 0x70 }
  - { offsetInCU: 0xE26B, offset: 0xE26B, size: 0x8, addend: 0x0, symName: __ZNSt3__19make_pairB7v160006IRPKiPiEENS_4pairINS_18__unwrap_ref_decayIT_E4typeENS6_IT0_E4typeEEEOS7_OSA_, symObjAddr: 0x55A0, symBinAddr: 0x100007540, symSize: 0x30 }
  - { offsetInCU: 0xE30D, offset: 0xE30D, size: 0x8, addend: 0x0, symName: __ZNSt3__113__rewrap_iterB7v160006IPKiS2_NS_18__unwrap_iter_implIS2_Lb1EEEEET_S5_T0_, symObjAddr: 0x56B0, symBinAddr: 0x100007650, symSize: 0x40 }
  - { offsetInCU: 0xE362, offset: 0xE362, size: 0x8, addend: 0x0, symName: __ZNSt3__130__uninitialized_allocator_copyB7v160006INS_9allocatorIiEEiiLPv0EEEPT0_RT_PKS4_S9_S5_, symObjAddr: 0x57C0, symBinAddr: 0x100007760, symSize: 0x30 }
  - { offsetInCU: 0xE3DA, offset: 0xE3DA, size: 0x8, addend: 0x0, symName: __ZNSt3__119__allocate_at_leastB7v160006INS_9allocatorIiEEEENS_19__allocation_resultINS_16allocator_traitsIT_E7pointerEEERS5_m, symObjAddr: 0x5A40, symBinAddr: 0x1000079E0, symSize: 0x40 }
  - { offsetInCU: 0xE607, offset: 0xE607, size: 0x8, addend: 0x0, symName: __ZNSt3__120__throw_length_errorB7v160006EPKc, symObjAddr: 0x5BE0, symBinAddr: 0x100007B80, symSize: 0x70 }
  - { offsetInCU: 0xE62F, offset: 0xE62F, size: 0x8, addend: 0x0, symName: __ZNSt3__13maxB7v160006ImEERKT_S3_S3_, symObjAddr: 0x5D10, symBinAddr: 0x100007CB0, symSize: 0x30 }
  - { offsetInCU: 0xE672, offset: 0xE672, size: 0x8, addend: 0x0, symName: __ZNSt3__13maxB7v160006ImNS_6__lessImmEEEERKT_S5_S5_T0_, symObjAddr: 0x5D40, symBinAddr: 0x100007CE0, symSize: 0x50 }
  - { offsetInCU: 0xE6F0, offset: 0xE6F0, size: 0x8, addend: 0x0, symName: __ZNSt3__17launderB7v160006IKNS_4pairIKNS_12basic_stringIcNS_11char_traitsIcEENS_9allocatorIcEEEEiEEEEPT_SC_, symObjAddr: 0x6870, symBinAddr: 0x100008810, symSize: 0x20 }
  - { offsetInCU: 0xE727, offset: 0xE727, size: 0x8, addend: 0x0, symName: __ZNSt3__19__launderB7v160006IKNS_4pairIKNS_12basic_stringIcNS_11char_traitsIcEENS_9allocatorIcEEEEiEEEEPT_SC_, symObjAddr: 0x6890, symBinAddr: 0x100008830, symSize: 0x10 }
  - { offsetInCU: 0xE75E, offset: 0xE75E, size: 0x8, addend: 0x0, symName: __ZNSt3__17launderB7v160006INS_4pairIKNS_12basic_stringIcNS_11char_traitsIcEENS_9allocatorIcEEEEiEEEEPT_SB_, symObjAddr: 0x6980, symBinAddr: 0x100008920, symSize: 0x20 }
  - { offsetInCU: 0xE795, offset: 0xE795, size: 0x8, addend: 0x0, symName: __ZNSt3__19__launderB7v160006INS_4pairIKNS_12basic_stringIcNS_11char_traitsIcEENS_9allocatorIcEEEEiEEEEPT_SB_, symObjAddr: 0x69A0, symBinAddr: 0x100008940, symSize: 0x10 }
  - { offsetInCU: 0xE7CC, offset: 0xE7CC, size: 0x8, addend: 0x0, symName: __ZNSt3__13getB7v160006ILm0EKNS_12basic_stringIcNS_11char_traitsIcEENS_9allocatorIcEEEEiEERKNS_13tuple_elementIXT_ENS_4pairIT0_T1_EEE4typeERKSC_, symObjAddr: 0x69E0, symBinAddr: 0x100008980, symSize: 0x20 }
  - { offsetInCU: 0xE815, offset: 0xE815, size: 0x8, addend: 0x0, symName: __ZNSt3__13getB7v160006ILm1EKNS_12basic_stringIcNS_11char_traitsIcEENS_9allocatorIcEEEEiEERKNS_13tuple_elementIXT_ENS_4pairIT0_T1_EEE4typeERKSC_, symObjAddr: 0x6A00, symBinAddr: 0x1000089A0, symSize: 0x20 }
  - { offsetInCU: 0xE8D8, offset: 0xE8D8, size: 0x8, addend: 0x0, symName: __ZNSt3__111__tree_leafB7v160006IPNS_16__tree_node_baseIPvEEEET_S5_, symObjAddr: 0x6B80, symBinAddr: 0x100008B20, symSize: 0x60 }
  - { offsetInCU: 0xE92B, offset: 0xE92B, size: 0x8, addend: 0x0, symName: __ZNSt3__17launderB7v160006INS_4pairIKNS_12basic_stringIcNS_11char_traitsIcEENS_9allocatorIcEEEENS_3mapIS7_iNS_4lessIS7_EENS5_INS1_IS8_iEEEEEEEEEEPT_SH_, symObjAddr: 0x78A0, symBinAddr: 0x100009840, symSize: 0x20 }
  - { offsetInCU: 0xE962, offset: 0xE962, size: 0x8, addend: 0x0, symName: __ZNSt3__19__launderB7v160006INS_4pairIKNS_12basic_stringIcNS_11char_traitsIcEENS_9allocatorIcEEEENS_3mapIS7_iNS_4lessIS7_EENS5_INS1_IS8_iEEEEEEEEEEPT_SH_, symObjAddr: 0x78C0, symBinAddr: 0x100009860, symSize: 0x10 }
  - { offsetInCU: 0xE999, offset: 0xE999, size: 0x8, addend: 0x0, symName: __ZNSt3__118__constexpr_strlenB7v160006EPKc, symObjAddr: 0x7C10, symBinAddr: 0x100009BB0, symSize: 0x20 }
  - { offsetInCU: 0xE9C5, offset: 0xE9C5, size: 0x8, addend: 0x0, symName: __ZNSt3__17launderB7v160006IKNS_4pairIKNS_12basic_stringIcNS_11char_traitsIcEENS_9allocatorIcEEEENS_3mapIS7_iNS_4lessIS7_EENS5_INS1_IS8_iEEEEEEEEEEPT_SI_, symObjAddr: 0x82C0, symBinAddr: 0x10000A260, symSize: 0x20 }
  - { offsetInCU: 0xE9FC, offset: 0xE9FC, size: 0x8, addend: 0x0, symName: __ZNSt3__19__launderB7v160006IKNS_4pairIKNS_12basic_stringIcNS_11char_traitsIcEENS_9allocatorIcEEEENS_3mapIS7_iNS_4lessIS7_EENS5_INS1_IS8_iEEEEEEEEEEPT_SI_, symObjAddr: 0x82E0, symBinAddr: 0x10000A280, symSize: 0x10 }
  - { offsetInCU: 0xEA84, offset: 0xEA84, size: 0x8, addend: 0x0, symName: __ZNSt3__1neB7v160006ERKNS_15__tree_iteratorINS_12__value_typeINS_12basic_stringIcNS_11char_traitsIcEENS_9allocatorIcEEEEiEEPNS_11__tree_nodeIS8_PvEElEESF_, symObjAddr: 0x8C80, symBinAddr: 0x10000AC20, symSize: 0x30 }
  - { offsetInCU: 0xEAC1, offset: 0xEAC1, size: 0x8, addend: 0x0, symName: __ZNSt3__1eqB7v160006ERKNS_15__tree_iteratorINS_12__value_typeINS_12basic_stringIcNS_11char_traitsIcEENS_9allocatorIcEEEEiEEPNS_11__tree_nodeIS8_PvEElEESF_, symObjAddr: 0x8CB0, symBinAddr: 0x10000AC50, symSize: 0x30 }
  - { offsetInCU: 0xEAFE, offset: 0xEAFE, size: 0x8, addend: 0x0, symName: __ZNSt3__116__tree_next_iterB7v160006IPNS_15__tree_end_nodeIPNS_16__tree_node_baseIPvEEEES5_EET_T0_, symObjAddr: 0x8D10, symBinAddr: 0x10000ACB0, symSize: 0x80 }
  - { offsetInCU: 0xEB3C, offset: 0xEB3C, size: 0x8, addend: 0x0, symName: __ZNSt3__110__tree_minB7v160006IPNS_16__tree_node_baseIPvEEEET_S5_, symObjAddr: 0x8D90, symBinAddr: 0x10000AD30, symSize: 0x30 }
  - { offsetInCU: 0xEBA4, offset: 0xEBA4, size: 0x8, addend: 0x0, symName: __ZNSt3__116__pad_and_outputB7v160006IcNS_11char_traitsIcEEEENS_19ostreambuf_iteratorIT_T0_EES6_PKS4_S8_S8_RNS_8ios_baseES4_, symObjAddr: 0x9030, symBinAddr: 0x10000AFD0, symSize: 0x220 }
  - { offsetInCU: 0xEC74, offset: 0xEC74, size: 0x8, addend: 0x0, symName: __ZNSt3__112__to_addressB7v160006IcEEPT_S2_, symObjAddr: 0x9490, symBinAddr: 0x10000B430, symSize: 0x10 }
  - { offsetInCU: 0xECDC, offset: 0xECDC, size: 0x8, addend: 0x0, symName: __ZNSt3__19use_facetB7v160006INS_5ctypeIcEEEERKT_RKNS_6localeE, symObjAddr: 0x9690, symBinAddr: 0x10000B630, symSize: 0x30 }
  - { offsetInCU: 0xF59A, offset: 0xF59A, size: 0x8, addend: 0x0, symName: __ZSt28__throw_bad_array_new_lengthB7v160006v, symObjAddr: 0x36C0, symBinAddr: 0x100005660, symSize: 0x40 }
  - { offsetInCU: 0x127C4, offset: 0x127C4, size: 0x8, addend: 0x0, symName: _main, symObjAddr: 0x0, symBinAddr: 0x100001FA0, symSize: 0x200 }
  - { offsetInCU: 0x12890, offset: 0x12890, size: 0x8, addend: 0x0, symName: __ZN11Poker_HandsC1Ev, symObjAddr: 0x200, symBinAddr: 0x1000021A0, symSize: 0x20 }
  - { offsetInCU: 0x12904, offset: 0x12904, size: 0x8, addend: 0x0, symName: __ZN5TrumpC1Ev, symObjAddr: 0x220, symBinAddr: 0x1000021C0, symSize: 0x20 }
  - { offsetInCU: 0x12930, offset: 0x12930, size: 0x8, addend: 0x0, symName: __ZN11Poker_Hands20initialize_pokerHandEv, symObjAddr: 0x240, symBinAddr: 0x1000021E0, symSize: 0x6A0 }
  - { offsetInCU: 0x12957, offset: 0x12957, size: 0x8, addend: 0x0, symName: __ZN5Trump16initialize_TrumpEv, symObjAddr: 0x8E0, symBinAddr: 0x100002880, symSize: 0x1490 }
  - { offsetInCU: 0x1297E, offset: 0x1297E, size: 0x8, addend: 0x0, symName: __ZNSt3__13mapINS_12basic_stringIcNS_11char_traitsIcEENS_9allocatorIcEEEENS0_IS6_iNS_4lessIS6_EENS4_INS_4pairIKS6_iEEEEEES8_NS4_INS9_ISA_SD_EEEEEixEOS6_, symObjAddr: 0x1D70, symBinAddr: 0x100003D10, symSize: 0x70 }
  - { offsetInCU: 0x129BA, offset: 0x129BA, size: 0x8, addend: 0x0, symName: __ZNSt3__112basic_stringIcNS_11char_traitsIcEENS_9allocatorIcEEEC1B7v160006IDnEEPKc, symObjAddr: 0x1DE0, symBinAddr: 0x100003D80, symSize: 0x30 }
  - { offsetInCU: 0x129F8, offset: 0x129F8, size: 0x8, addend: 0x0, symName: __ZNSt3__13mapINS_12basic_stringIcNS_11char_traitsIcEENS_9allocatorIcEEEEiNS_4lessIS6_EENS4_INS_4pairIKS6_iEEEEE5beginB7v160006Ev, symObjAddr: 0x1E10, symBinAddr: 0x100003DB0, symSize: 0x30 }
  - { offsetInCU: 0x12A1E, offset: 0x12A1E, size: 0x8, addend: 0x0, symName: __ZNSt3__13mapINS_12basic_stringIcNS_11char_traitsIcEENS_9allocatorIcEEEEiNS_4lessIS6_EENS4_INS_4pairIKS6_iEEEEE3endB7v160006Ev, symObjAddr: 0x1E40, symBinAddr: 0x100003DE0, symSize: 0x30 }
  - { offsetInCU: 0x12A44, offset: 0x12A44, size: 0x8, addend: 0x0, symName: __ZNKSt3__114__map_iteratorINS_15__tree_iteratorINS_12__value_typeINS_12basic_stringIcNS_11char_traitsIcEENS_9allocatorIcEEEEiEEPNS_11__tree_nodeIS9_PvEElEEEdeB7v160006Ev, symObjAddr: 0x1EA0, symBinAddr: 0x100003E40, symSize: 0x30 }
  - { offsetInCU: 0x12A6A, offset: 0x12A6A, size: 0x8, addend: 0x0, symName: __ZNSt3__113basic_ostreamIcNS_11char_traitsIcEEElsB7v160006EPFRS3_S4_E, symObjAddr: 0x1F60, symBinAddr: 0x100003F00, symSize: 0x20 }
  - { offsetInCU: 0x12A9E, offset: 0x12A9E, size: 0x8, addend: 0x0, symName: __ZNSt3__114__map_iteratorINS_15__tree_iteratorINS_12__value_typeINS_12basic_stringIcNS_11char_traitsIcEENS_9allocatorIcEEEEiEEPNS_11__tree_nodeIS9_PvEElEEEppB7v160006Ev, symObjAddr: 0x1FD0, symBinAddr: 0x100003F70, symSize: 0x30 }
  - { offsetInCU: 0x12AC4, offset: 0x12AC4, size: 0x8, addend: 0x0, symName: __ZN5TrumpD1Ev, symObjAddr: 0x2000, symBinAddr: 0x100003FA0, symSize: 0x20 }
  - { offsetInCU: 0x12AF0, offset: 0x12AF0, size: 0x8, addend: 0x0, symName: __ZN11Poker_HandsD1Ev, symObjAddr: 0x2020, symBinAddr: 0x100003FC0, symSize: 0x20 }
  - { offsetInCU: 0x12B1C, offset: 0x12B1C, size: 0x8, addend: 0x0, symName: __ZN11Poker_HandsC2Ev, symObjAddr: 0x2040, symBinAddr: 0x100003FE0, symSize: 0x20 }
  - { offsetInCU: 0x12B48, offset: 0x12B48, size: 0x8, addend: 0x0, symName: __ZNSt3__13mapINS_12basic_stringIcNS_11char_traitsIcEENS_9allocatorIcEEEENS_6vectorIiNS4_IiEEEENS_4lessIS6_EENS4_INS_4pairIKS6_S9_EEEEEC1B7v160006Ev, symObjAddr: 0x2060, symBinAddr: 0x100004000, symSize: 0x20 }
  - { offsetInCU: 0x12B72, offset: 0x12B72, size: 0x8, addend: 0x0, symName: __ZNSt3__13mapINS_12basic_stringIcNS_11char_traitsIcEENS_9allocatorIcEEEENS_6vectorIiNS4_IiEEEENS_4lessIS6_EENS4_INS_4pairIKS6_S9_EEEEEC2B7v160006Ev, symObjAddr: 0x2080, symBinAddr: 0x100004020, symSize: 0x30 }
  - { offsetInCU: 0x12B9C, offset: 0x12B9C, size: 0x8, addend: 0x0, symName: __ZNSt3__119__map_value_compareINS_12basic_stringIcNS_11char_traitsIcEENS_9allocatorIcEEEENS_12__value_typeIS6_NS_6vectorIiNS4_IiEEEEEENS_4lessIS6_EELb1EEC1B7v160006ESD_, symObjAddr: 0x20B0, symBinAddr: 0x100004050, symSize: 0x20 }
  - { offsetInCU: 0x12BD5, offset: 0x12BD5, size: 0x8, addend: 0x0, symName: __ZNSt3__16__treeINS_12__value_typeINS_12basic_stringIcNS_11char_traitsIcEENS_9allocatorIcEEEENS_6vectorIiNS5_IiEEEEEENS_19__map_value_compareIS7_SB_NS_4lessIS7_EELb1EEENS5_ISB_EEEC1ERKSF_, symObjAddr: 0x20D0, symBinAddr: 0x100004070, symSize: 0x30 }
  - { offsetInCU: 0x12C10, offset: 0x12C10, size: 0x8, addend: 0x0, symName: __ZNSt3__119__map_value_compareINS_12basic_stringIcNS_11char_traitsIcEENS_9allocatorIcEEEENS_12__value_typeIS6_NS_6vectorIiNS4_IiEEEEEENS_4lessIS6_EELb1EEC2B7v160006ESD_, symObjAddr: 0x2100, symBinAddr: 0x1000040A0, symSize: 0x10 }
  - { offsetInCU: 0x12C49, offset: 0x12C49, size: 0x8, addend: 0x0, symName: __ZNSt3__16__treeINS_12__value_typeINS_12basic_stringIcNS_11char_traitsIcEENS_9allocatorIcEEEENS_6vectorIiNS5_IiEEEEEENS_19__map_value_compareIS7_SB_NS_4lessIS7_EELb1EEENS5_ISB_EEEC2ERKSF_, symObjAddr: 0x2110, symBinAddr: 0x1000040B0, symSize: 0x80 }
  - { offsetInCU: 0x12C84, offset: 0x12C84, size: 0x8, addend: 0x0, symName: __ZNSt3__117__compressed_pairINS_15__tree_end_nodeIPNS_16__tree_node_baseIPvEEEENS_9allocatorINS_11__tree_nodeINS_12__value_typeINS_12basic_stringIcNS_11char_traitsIcEENS7_IcEEEENS_6vectorIiNS7_IiEEEEEES3_EEEEEC1B7v160006ILb1EvEEv, symObjAddr: 0x2190, symBinAddr: 0x100004130, symSize: 0x20 }
  - { offsetInCU: 0x12CBE, offset: 0x12CBE, size: 0x8, addend: 0x0, symName: __ZNSt3__117__compressed_pairImNS_19__map_value_compareINS_12basic_stringIcNS_11char_traitsIcEENS_9allocatorIcEEEENS_12__value_typeIS7_NS_6vectorIiNS5_IiEEEEEENS_4lessIS7_EELb1EEEEC1B7v160006IiRKSF_EEOT_OT0_, symObjAddr: 0x21C0, symBinAddr: 0x100004160, symSize: 0x30 }
  - { offsetInCU: 0x12D16, offset: 0x12D16, size: 0x8, addend: 0x0, symName: __ZNSt3__16__treeINS_12__value_typeINS_12basic_stringIcNS_11char_traitsIcEENS_9allocatorIcEEEENS_6vectorIiNS5_IiEEEEEENS_19__map_value_compareIS7_SB_NS_4lessIS7_EELb1EEENS5_ISB_EEE10__end_nodeB7v160006Ev, symObjAddr: 0x21F0, symBinAddr: 0x100004190, symSize: 0x30 }
  - { offsetInCU: 0x12D3C, offset: 0x12D3C, size: 0x8, addend: 0x0, symName: __ZNSt3__16__treeINS_12__value_typeINS_12basic_stringIcNS_11char_traitsIcEENS_9allocatorIcEEEENS_6vectorIiNS5_IiEEEEEENS_19__map_value_compareIS7_SB_NS_4lessIS7_EELb1EEENS5_ISB_EEE12__begin_nodeB7v160006Ev, symObjAddr: 0x2220, symBinAddr: 0x1000041C0, symSize: 0x10 }
  - { offsetInCU: 0x12D62, offset: 0x12D62, size: 0x8, addend: 0x0, symName: __ZNSt3__117__compressed_pairINS_15__tree_end_nodeIPNS_16__tree_node_baseIPvEEEENS_9allocatorINS_11__tree_nodeINS_12__value_typeINS_12basic_stringIcNS_11char_traitsIcEENS7_IcEEEENS_6vectorIiNS7_IiEEEEEES3_EEEEEC2B7v160006ILb1EvEEv, symObjAddr: 0x2230, symBinAddr: 0x1000041D0, symSize: 0x30 }
  - { offsetInCU: 0x12D97, offset: 0x12D97, size: 0x8, addend: 0x0, symName: __ZNSt3__122__compressed_pair_elemINS_15__tree_end_nodeIPNS_16__tree_node_baseIPvEEEELi0ELb0EEC2B7v160006ENS_16__value_init_tagE, symObjAddr: 0x2260, symBinAddr: 0x100004200, symSize: 0x20 }
  - { offsetInCU: 0x12DCB, offset: 0x12DCB, size: 0x8, addend: 0x0, symName: __ZNSt3__122__compressed_pair_elemINS_9allocatorINS_11__tree_nodeINS_12__value_typeINS_12basic_stringIcNS_11char_traitsIcEENS1_IcEEEENS_6vectorIiNS1_IiEEEEEEPvEEEELi1ELb1EEC2B7v160006ENS_16__value_init_tagE, symObjAddr: 0x2280, symBinAddr: 0x100004220, symSize: 0x20 }
  - { offsetInCU: 0x12DFF, offset: 0x12DFF, size: 0x8, addend: 0x0, symName: __ZNSt3__115__tree_end_nodeIPNS_16__tree_node_baseIPvEEEC1B7v160006Ev, symObjAddr: 0x22A0, symBinAddr: 0x100004240, symSize: 0x20 }
  - { offsetInCU: 0x12E29, offset: 0x12E29, size: 0x8, addend: 0x0, symName: __ZNSt3__115__tree_end_nodeIPNS_16__tree_node_baseIPvEEEC2B7v160006Ev, symObjAddr: 0x22C0, symBinAddr: 0x100004260, symSize: 0x20 }
  - { offsetInCU: 0x12E53, offset: 0x12E53, size: 0x8, addend: 0x0, symName: __ZNSt3__19allocatorINS_11__tree_nodeINS_12__value_typeINS_12basic_stringIcNS_11char_traitsIcEENS0_IcEEEENS_6vectorIiNS0_IiEEEEEEPvEEEC2B7v160006Ev, symObjAddr: 0x22E0, symBinAddr: 0x100004280, symSize: 0x20 }
  - { offsetInCU: 0x12E7D, offset: 0x12E7D, size: 0x8, addend: 0x0, symName: __ZNSt3__116__non_trivial_ifILb1ENS_9allocatorINS_11__tree_nodeINS_12__value_typeINS_12basic_stringIcNS_11char_traitsIcEENS1_IcEEEENS_6vectorIiNS1_IiEEEEEEPvEEEEEC2B7v160006Ev, symObjAddr: 0x2300, symBinAddr: 0x1000042A0, symSize: 0x10 }
  - { offsetInCU: 0x12EA7, offset: 0x12EA7, size: 0x8, addend: 0x0, symName: __ZNSt3__117__compressed_pairImNS_19__map_value_compareINS_12basic_stringIcNS_11char_traitsIcEENS_9allocatorIcEEEENS_12__value_typeIS7_NS_6vectorIiNS5_IiEEEEEENS_4lessIS7_EELb1EEEEC2B7v160006IiRKSF_EEOT_OT0_, symObjAddr: 0x2310, symBinAddr: 0x1000042B0, symSize: 0x40 }
  - { offsetInCU: 0x12EFF, offset: 0x12EFF, size: 0x8, addend: 0x0, symName: __ZNSt3__122__compressed_pair_elemImLi0ELb0EEC2B7v160006IivEEOT_, symObjAddr: 0x2350, symBinAddr: 0x1000042F0, symSize: 0x20 }
  - { offsetInCU: 0x12F41, offset: 0x12F41, size: 0x8, addend: 0x0, symName: __ZNSt3__122__compressed_pair_elemINS_19__map_value_compareINS_12basic_stringIcNS_11char_traitsIcEENS_9allocatorIcEEEENS_12__value_typeIS7_NS_6vectorIiNS5_IiEEEEEENS_4lessIS7_EELb1EEELi1ELb1EEC2B7v160006IRKSF_vEEOT_, symObjAddr: 0x2370, symBinAddr: 0x100004310, symSize: 0x10 }
  - { offsetInCU: 0x12F83, offset: 0x12F83, size: 0x8, addend: 0x0, symName: __ZNSt3__114pointer_traitsIPNS_15__tree_end_nodeIPNS_16__tree_node_baseIPvEEEEE10pointer_toB7v160006ERS6_, symObjAddr: 0x2380, symBinAddr: 0x100004320, symSize: 0x10 }
  - { offsetInCU: 0x12FA6, offset: 0x12FA6, size: 0x8, addend: 0x0, symName: __ZNSt3__117__compressed_pairINS_15__tree_end_nodeIPNS_16__tree_node_baseIPvEEEENS_9allocatorINS_11__tree_nodeINS_12__value_typeINS_12basic_stringIcNS_11char_traitsIcEENS7_IcEEEENS_6vectorIiNS7_IiEEEEEES3_EEEEE5firstB7v160006Ev, symObjAddr: 0x2390, symBinAddr: 0x100004330, symSize: 0x20 }
  - { offsetInCU: 0x12FCC, offset: 0x12FCC, size: 0x8, addend: 0x0, symName: __ZNSt3__122__compressed_pair_elemINS_15__tree_end_nodeIPNS_16__tree_node_baseIPvEEEELi0ELb0EE5__getB7v160006Ev, symObjAddr: 0x23B0, symBinAddr: 0x100004350, symSize: 0x10 }
  - { offsetInCU: 0x12FF2, offset: 0x12FF2, size: 0x8, addend: 0x0, symName: __ZN5TrumpC2Ev, symObjAddr: 0x23C0, symBinAddr: 0x100004360, symSize: 0x20 }
  - { offsetInCU: 0x1301E, offset: 0x1301E, size: 0x8, addend: 0x0, symName: __ZNSt3__13mapINS_12basic_stringIcNS_11char_traitsIcEENS_9allocatorIcEEEENS0_IS6_iNS_4lessIS6_EENS4_INS_4pairIKS6_iEEEEEES8_NS4_INS9_ISA_SD_EEEEEC1B7v160006Ev, symObjAddr: 0x23E0, symBinAddr: 0x100004380, symSize: 0x20 }
  - { offsetInCU: 0x13048, offset: 0x13048, size: 0x8, addend: 0x0, symName: __ZNSt3__13mapINS_12basic_stringIcNS_11char_traitsIcEENS_9allocatorIcEEEENS0_IS6_iNS_4lessIS6_EENS4_INS_4pairIKS6_iEEEEEES8_NS4_INS9_ISA_SD_EEEEEC2B7v160006Ev, symObjAddr: 0x2400, symBinAddr: 0x1000043A0, symSize: 0x30 }
  - { offsetInCU: 0x13072, offset: 0x13072, size: 0x8, addend: 0x0, symName: __ZNSt3__119__map_value_compareINS_12basic_stringIcNS_11char_traitsIcEENS_9allocatorIcEEEENS_12__value_typeIS6_NS_3mapIS6_iNS_4lessIS6_EENS4_INS_4pairIKS6_iEEEEEEEESA_Lb1EEC1B7v160006ESA_, symObjAddr: 0x2430, symBinAddr: 0x1000043D0, symSize: 0x20 }
  - { offsetInCU: 0x130AB, offset: 0x130AB, size: 0x8, addend: 0x0, symName: __ZNSt3__16__treeINS_12__value_typeINS_12basic_stringIcNS_11char_traitsIcEENS_9allocatorIcEEEENS_3mapIS7_iNS_4lessIS7_EENS5_INS_4pairIKS7_iEEEEEEEENS_19__map_value_compareIS7_SG_SA_Lb1EEENS5_ISG_EEEC1ERKSI_, symObjAddr: 0x2450, symBinAddr: 0x1000043F0, symSize: 0x30 }
  - { offsetInCU: 0x130E6, offset: 0x130E6, size: 0x8, addend: 0x0, symName: __ZNSt3__119__map_value_compareINS_12basic_stringIcNS_11char_traitsIcEENS_9allocatorIcEEEENS_12__value_typeIS6_NS_3mapIS6_iNS_4lessIS6_EENS4_INS_4pairIKS6_iEEEEEEEESA_Lb1EEC2B7v160006ESA_, symObjAddr: 0x2480, symBinAddr: 0x100004420, symSize: 0x10 }
  - { offsetInCU: 0x1311F, offset: 0x1311F, size: 0x8, addend: 0x0, symName: __ZNSt3__16__treeINS_12__value_typeINS_12basic_stringIcNS_11char_traitsIcEENS_9allocatorIcEEEENS_3mapIS7_iNS_4lessIS7_EENS5_INS_4pairIKS7_iEEEEEEEENS_19__map_value_compareIS7_SG_SA_Lb1EEENS5_ISG_EEEC2ERKSI_, symObjAddr: 0x2490, symBinAddr: 0x100004430, symSize: 0x80 }
  - { offsetInCU: 0x1315A, offset: 0x1315A, size: 0x8, addend: 0x0, symName: __ZNSt3__117__compressed_pairINS_15__tree_end_nodeIPNS_16__tree_node_baseIPvEEEENS_9allocatorINS_11__tree_nodeINS_12__value_typeINS_12basic_stringIcNS_11char_traitsIcEENS7_IcEEEENS_3mapISE_iNS_4lessISE_EENS7_INS_4pairIKSE_iEEEEEEEES3_EEEEEC1B7v160006ILb1EvEEv, symObjAddr: 0x2510, symBinAddr: 0x1000044B0, symSize: 0x20 }
  - { offsetInCU: 0x1318F, offset: 0x1318F, size: 0x8, addend: 0x0, symName: __ZNSt3__117__compressed_pairImNS_19__map_value_compareINS_12basic_stringIcNS_11char_traitsIcEENS_9allocatorIcEEEENS_12__value_typeIS7_NS_3mapIS7_iNS_4lessIS7_EENS5_INS_4pairIKS7_iEEEEEEEESB_Lb1EEEEC1B7v160006IiRKSI_EEOT_OT0_, symObjAddr: 0x2530, symBinAddr: 0x1000044D0, symSize: 0x30 }
  - { offsetInCU: 0x131E7, offset: 0x131E7, size: 0x8, addend: 0x0, symName: __ZNSt3__16__treeINS_12__value_typeINS_12basic_stringIcNS_11char_traitsIcEENS_9allocatorIcEEEENS_3mapIS7_iNS_4lessIS7_EENS5_INS_4pairIKS7_iEEEEEEEENS_19__map_value_compareIS7_SG_SA_Lb1EEENS5_ISG_EEE10__end_nodeB7v160006Ev, symObjAddr: 0x2560, symBinAddr: 0x100004500, symSize: 0x30 }
  - { offsetInCU: 0x1320D, offset: 0x1320D, size: 0x8, addend: 0x0, symName: __ZNSt3__16__treeINS_12__value_typeINS_12basic_stringIcNS_11char_traitsIcEENS_9allocatorIcEEEENS_3mapIS7_iNS_4lessIS7_EENS5_INS_4pairIKS7_iEEEEEEEENS_19__map_value_compareIS7_SG_SA_Lb1EEENS5_ISG_EEE12__begin_nodeB7v160006Ev, symObjAddr: 0x2590, symBinAddr: 0x100004530, symSize: 0x10 }
  - { offsetInCU: 0x13233, offset: 0x13233, size: 0x8, addend: 0x0, symName: __ZNSt3__117__compressed_pairINS_15__tree_end_nodeIPNS_16__tree_node_baseIPvEEEENS_9allocatorINS_11__tree_nodeINS_12__value_typeINS_12basic_stringIcNS_11char_traitsIcEENS7_IcEEEENS_3mapISE_iNS_4lessISE_EENS7_INS_4pairIKSE_iEEEEEEEES3_EEEEEC2B7v160006ILb1EvEEv, symObjAddr: 0x25A0, symBinAddr: 0x100004540, symSize: 0x30 }
  - { offsetInCU: 0x13268, offset: 0x13268, size: 0x8, addend: 0x0, symName: __ZNSt3__122__compressed_pair_elemINS_9allocatorINS_11__tree_nodeINS_12__value_typeINS_12basic_stringIcNS_11char_traitsIcEENS1_IcEEEENS_3mapIS8_iNS_4lessIS8_EENS1_INS_4pairIKS8_iEEEEEEEEPvEEEELi1ELb1EEC2B7v160006ENS_16__value_init_tagE, symObjAddr: 0x25D0, symBinAddr: 0x100004570, symSize: 0x20 }
  - { offsetInCU: 0x1329C, offset: 0x1329C, size: 0x8, addend: 0x0, symName: __ZNSt3__19allocatorINS_11__tree_nodeINS_12__value_typeINS_12basic_stringIcNS_11char_traitsIcEENS0_IcEEEENS_3mapIS7_iNS_4lessIS7_EENS0_INS_4pairIKS7_iEEEEEEEEPvEEEC2B7v160006Ev, symObjAddr: 0x25F0, symBinAddr: 0x100004590, symSize: 0x20 }
  - { offsetInCU: 0x132C6, offset: 0x132C6, size: 0x8, addend: 0x0, symName: __ZNSt3__116__non_trivial_ifILb1ENS_9allocatorINS_11__tree_nodeINS_12__value_typeINS_12basic_stringIcNS_11char_traitsIcEENS1_IcEEEENS_3mapIS8_iNS_4lessIS8_EENS1_INS_4pairIKS8_iEEEEEEEEPvEEEEEC2B7v160006Ev, symObjAddr: 0x2610, symBinAddr: 0x1000045B0, symSize: 0x10 }
  - { offsetInCU: 0x132F0, offset: 0x132F0, size: 0x8, addend: 0x0, symName: __ZNSt3__117__compressed_pairImNS_19__map_value_compareINS_12basic_stringIcNS_11char_traitsIcEENS_9allocatorIcEEEENS_12__value_typeIS7_NS_3mapIS7_iNS_4lessIS7_EENS5_INS_4pairIKS7_iEEEEEEEESB_Lb1EEEEC2B7v160006IiRKSI_EEOT_OT0_, symObjAddr: 0x2620, symBinAddr: 0x1000045C0, symSize: 0x40 }
  - { offsetInCU: 0x13348, offset: 0x13348, size: 0x8, addend: 0x0, symName: __ZNSt3__122__compressed_pair_elemINS_19__map_value_compareINS_12basic_stringIcNS_11char_traitsIcEENS_9allocatorIcEEEENS_12__value_typeIS7_NS_3mapIS7_iNS_4lessIS7_EENS5_INS_4pairIKS7_iEEEEEEEESB_Lb1EEELi1ELb1EEC2B7v160006IRKSI_vEEOT_, symObjAddr: 0x2660, symBinAddr: 0x100004600, symSize: 0x10 }
  - { offsetInCU: 0x1338A, offset: 0x1338A, size: 0x8, addend: 0x0, symName: __ZNSt3__117__compressed_pairINS_15__tree_end_nodeIPNS_16__tree_node_baseIPvEEEENS_9allocatorINS_11__tree_nodeINS_12__value_typeINS_12basic_stringIcNS_11char_traitsIcEENS7_IcEEEENS_3mapISE_iNS_4lessISE_EENS7_INS_4pairIKSE_iEEEEEEEES3_EEEEE5firstB7v160006Ev, symObjAddr: 0x2670, symBinAddr: 0x100004610, symSize: 0x20 }
  - { offsetInCU: 0x133B0, offset: 0x133B0, size: 0x8, addend: 0x0, symName: __ZNSt3__13mapINS_12basic_stringIcNS_11char_traitsIcEENS_9allocatorIcEEEENS_6vectorIiNS4_IiEEEENS_4lessIS6_EENS4_INS_4pairIKS6_S9_EEEEEixEOS6_, symObjAddr: 0x2690, symBinAddr: 0x100004630, symSize: 0x70 }
  - { offsetInCU: 0x133E7, offset: 0x133E7, size: 0x8, addend: 0x0, symName: __ZNSt3__16vectorIiNS_9allocatorIiEEEaSB7v160006ESt16initializer_listIiE, symObjAddr: 0x2700, symBinAddr: 0x1000046A0, symSize: 0x50 }
  - { offsetInCU: 0x13430, offset: 0x13430, size: 0x8, addend: 0x0, symName: __ZNSt3__16__treeINS_12__value_typeINS_12basic_stringIcNS_11char_traitsIcEENS_9allocatorIcEEEENS_6vectorIiNS5_IiEEEEEENS_19__map_value_compareIS7_SB_NS_4lessIS7_EELb1EEENS5_ISB_EEE25__emplace_unique_key_argsIS7_JRKNS_21piecewise_construct_tENS_5tupleIJOS7_EEENSM_IJEEEEEENS_4pairINS_15__tree_iteratorISB_PNS_11__tree_nodeISB_PvEElEEbEERKT_DpOT0_, symObjAddr: 0x2750, symBinAddr: 0x1000046F0, symSize: 0x100 }
  - { offsetInCU: 0x1350F, offset: 0x1350F, size: 0x8, addend: 0x0, symName: __ZNKSt3__115__tree_iteratorINS_12__value_typeINS_12basic_stringIcNS_11char_traitsIcEENS_9allocatorIcEEEENS_6vectorIiNS5_IiEEEEEEPNS_11__tree_nodeISB_PvEElEptB7v160006Ev, symObjAddr: 0x2890, symBinAddr: 0x100004830, symSize: 0x30 }
  - { offsetInCU: 0x13535, offset: 0x13535, size: 0x8, addend: 0x0, symName: __ZNSt3__112__value_typeINS_12basic_stringIcNS_11char_traitsIcEENS_9allocatorIcEEEENS_6vectorIiNS4_IiEEEEE11__get_valueB7v160006Ev, symObjAddr: 0x28C0, symBinAddr: 0x100004860, symSize: 0x20 }
  - { offsetInCU: 0x1355B, offset: 0x1355B, size: 0x8, addend: 0x0, symName: __ZNSt3__16__treeINS_12__value_typeINS_12basic_stringIcNS_11char_traitsIcEENS_9allocatorIcEEEENS_6vectorIiNS5_IiEEEEEENS_19__map_value_compareIS7_SB_NS_4lessIS7_EELb1EEENS5_ISB_EEE12__find_equalIS7_EERPNS_16__tree_node_baseIPvEERPNS_15__tree_end_nodeISM_EERKT_, symObjAddr: 0x28E0, symBinAddr: 0x100004880, symSize: 0x180 }
  - { offsetInCU: 0x135C8, offset: 0x135C8, size: 0x8, addend: 0x0, symName: __ZNSt3__16__treeINS_12__value_typeINS_12basic_stringIcNS_11char_traitsIcEENS_9allocatorIcEEEENS_6vectorIiNS5_IiEEEEEENS_19__map_value_compareIS7_SB_NS_4lessIS7_EELb1EEENS5_ISB_EEE16__construct_nodeIJRKNS_21piecewise_construct_tENS_5tupleIJOS7_EEENSM_IJEEEEEENS_10unique_ptrINS_11__tree_nodeISB_PvEENS_22__tree_node_destructorINS5_IST_EEEEEEDpOT_, symObjAddr: 0x2A60, symBinAddr: 0x100004A00, symSize: 0x120 }
  - { offsetInCU: 0x13651, offset: 0x13651, size: 0x8, addend: 0x0, symName: __ZNSt3__16__treeINS_12__value_typeINS_12basic_stringIcNS_11char_traitsIcEENS_9allocatorIcEEEENS_6vectorIiNS5_IiEEEEEENS_19__map_value_compareIS7_SB_NS_4lessIS7_EELb1EEENS5_ISB_EEE16__insert_node_atEPNS_15__tree_end_nodeIPNS_16__tree_node_baseIPvEEEERSM_SM_, symObjAddr: 0x2B80, symBinAddr: 0x100004B20, symSize: 0xC0 }
  - { offsetInCU: 0x136A6, offset: 0x136A6, size: 0x8, addend: 0x0, symName: __ZNKSt3__110unique_ptrINS_11__tree_nodeINS_12__value_typeINS_12basic_stringIcNS_11char_traitsIcEENS_9allocatorIcEEEENS_6vectorIiNS6_IiEEEEEEPvEENS_22__tree_node_destructorINS6_ISE_EEEEE3getB7v160006Ev, symObjAddr: 0x2C40, symBinAddr: 0x100004BE0, symSize: 0x20 }
  - { offsetInCU: 0x136CC, offset: 0x136CC, size: 0x8, addend: 0x0, symName: __ZNSt3__110unique_ptrINS_11__tree_nodeINS_12__value_typeINS_12basic_stringIcNS_11char_traitsIcEENS_9allocatorIcEEEENS_6vectorIiNS6_IiEEEEEEPvEENS_22__tree_node_destructorINS6_ISE_EEEEE7releaseB7v160006Ev, symObjAddr: 0x2C60, symBinAddr: 0x100004C00, symSize: 0x40 }
  - { offsetInCU: 0x13701, offset: 0x13701, size: 0x8, addend: 0x0, symName: __ZNSt3__110unique_ptrINS_11__tree_nodeINS_12__value_typeINS_12basic_stringIcNS_11char_traitsIcEENS_9allocatorIcEEEENS_6vectorIiNS6_IiEEEEEEPvEENS_22__tree_node_destructorINS6_ISE_EEEEED1B7v160006Ev, symObjAddr: 0x2CA0, symBinAddr: 0x100004C40, symSize: 0x20 }
  - { offsetInCU: 0x1372B, offset: 0x1372B, size: 0x8, addend: 0x0, symName: __ZNSt3__115__tree_iteratorINS_12__value_typeINS_12basic_stringIcNS_11char_traitsIcEENS_9allocatorIcEEEENS_6vectorIiNS5_IiEEEEEEPNS_11__tree_nodeISB_PvEElEC1B7v160006ESF_, symObjAddr: 0x2CC0, symBinAddr: 0x100004C60, symSize: 0x30 }
  - { offsetInCU: 0x1376E, offset: 0x1376E, size: 0x8, addend: 0x0, symName: __ZNSt3__14pairINS_15__tree_iteratorINS_12__value_typeINS_12basic_stringIcNS_11char_traitsIcEENS_9allocatorIcEEEENS_6vectorIiNS6_IiEEEEEEPNS_11__tree_nodeISC_PvEElEEbEC1B7v160006ISH_RbLSE_0EEEOT_OT0_, symObjAddr: 0x2CF0, symBinAddr: 0x100004C90, symSize: 0x30 }
  - { offsetInCU: 0x137CC, offset: 0x137CC, size: 0x8, addend: 0x0, symName: __ZNKSt3__16__treeINS_12__value_typeINS_12basic_stringIcNS_11char_traitsIcEENS_9allocatorIcEEEENS_6vectorIiNS5_IiEEEEEENS_19__map_value_compareIS7_SB_NS_4lessIS7_EELb1EEENS5_ISB_EEE6__rootB7v160006Ev, symObjAddr: 0x2D20, symBinAddr: 0x100004CC0, symSize: 0x20 }
  - { offsetInCU: 0x137F2, offset: 0x137F2, size: 0x8, addend: 0x0, symName: __ZNKSt3__16__treeINS_12__value_typeINS_12basic_stringIcNS_11char_traitsIcEENS_9allocatorIcEEEENS_6vectorIiNS5_IiEEEEEENS_19__map_value_compareIS7_SB_NS_4lessIS7_EELb1EEENS5_ISB_EEE10__root_ptrEv, symObjAddr: 0x2D40, symBinAddr: 0x100004CE0, symSize: 0x20 }
  - { offsetInCU: 0x13818, offset: 0x13818, size: 0x8, addend: 0x0, symName: __ZNSt3__16__treeINS_12__value_typeINS_12basic_stringIcNS_11char_traitsIcEENS_9allocatorIcEEEENS_6vectorIiNS5_IiEEEEEENS_19__map_value_compareIS7_SB_NS_4lessIS7_EELb1EEENS5_ISB_EEE10value_compB7v160006Ev, symObjAddr: 0x2D60, symBinAddr: 0x100004D00, symSize: 0x20 }
  - { offsetInCU: 0x1383E, offset: 0x1383E, size: 0x8, addend: 0x0, symName: __ZNKSt3__119__map_value_compareINS_12basic_stringIcNS_11char_traitsIcEENS_9allocatorIcEEEENS_12__value_typeIS6_NS_6vectorIiNS4_IiEEEEEENS_4lessIS6_EELb1EEclB7v160006ERKS6_RKSB_, symObjAddr: 0x2D80, symBinAddr: 0x100004D20, symSize: 0x50 }
  - { offsetInCU: 0x13882, offset: 0x13882, size: 0x8, addend: 0x0, symName: __ZNKSt3__119__map_value_compareINS_12basic_stringIcNS_11char_traitsIcEENS_9allocatorIcEEEENS_12__value_typeIS6_NS_6vectorIiNS4_IiEEEEEENS_4lessIS6_EELb1EEclB7v160006ERKSB_RKS6_, symObjAddr: 0x2DD0, symBinAddr: 0x100004D70, symSize: 0x40 }
  - { offsetInCU: 0x138C6, offset: 0x138C6, size: 0x8, addend: 0x0, symName: __ZNKSt3__16__treeINS_12__value_typeINS_12basic_stringIcNS_11char_traitsIcEENS_9allocatorIcEEEENS_6vectorIiNS5_IiEEEEEENS_19__map_value_compareIS7_SB_NS_4lessIS7_EELb1EEENS5_ISB_EEE10__end_nodeB7v160006Ev, symObjAddr: 0x2E10, symBinAddr: 0x100004DB0, symSize: 0x30 }
  - { offsetInCU: 0x138EC, offset: 0x138EC, size: 0x8, addend: 0x0, symName: __ZNKSt3__117__compressed_pairINS_15__tree_end_nodeIPNS_16__tree_node_baseIPvEEEENS_9allocatorINS_11__tree_nodeINS_12__value_typeINS_12basic_stringIcNS_11char_traitsIcEENS7_IcEEEENS_6vectorIiNS7_IiEEEEEES3_EEEEE5firstB7v160006Ev, symObjAddr: 0x2E40, symBinAddr: 0x100004DE0, symSize: 0x20 }
  - { offsetInCU: 0x13912, offset: 0x13912, size: 0x8, addend: 0x0, symName: __ZNKSt3__122__compressed_pair_elemINS_15__tree_end_nodeIPNS_16__tree_node_baseIPvEEEELi0ELb0EE5__getB7v160006Ev, symObjAddr: 0x2E60, symBinAddr: 0x100004E00, symSize: 0x10 }
  - { offsetInCU: 0x13938, offset: 0x13938, size: 0x8, addend: 0x0, symName: __ZNSt3__117__compressed_pairImNS_19__map_value_compareINS_12basic_stringIcNS_11char_traitsIcEENS_9allocatorIcEEEENS_12__value_typeIS7_NS_6vectorIiNS5_IiEEEEEENS_4lessIS7_EELb1EEEE6secondB7v160006Ev, symObjAddr: 0x2E70, symBinAddr: 0x100004E10, symSize: 0x20 }
  - { offsetInCU: 0x1395E, offset: 0x1395E, size: 0x8, addend: 0x0, symName: __ZNSt3__122__compressed_pair_elemINS_19__map_value_compareINS_12basic_stringIcNS_11char_traitsIcEENS_9allocatorIcEEEENS_12__value_typeIS7_NS_6vectorIiNS5_IiEEEEEENS_4lessIS7_EELb1EEELi1ELb1EE5__getB7v160006Ev, symObjAddr: 0x2E90, symBinAddr: 0x100004E30, symSize: 0x10 }
  - { offsetInCU: 0x13984, offset: 0x13984, size: 0x8, addend: 0x0, symName: __ZNKSt3__14lessINS_12basic_stringIcNS_11char_traitsIcEENS_9allocatorIcEEEEEclB7v160006ERKS6_S9_, symObjAddr: 0x2EA0, symBinAddr: 0x100004E40, symSize: 0x30 }
  - { offsetInCU: 0x139C8, offset: 0x139C8, size: 0x8, addend: 0x0, symName: __ZNKSt3__112__value_typeINS_12basic_stringIcNS_11char_traitsIcEENS_9allocatorIcEEEENS_6vectorIiNS4_IiEEEEE11__get_valueB7v160006Ev, symObjAddr: 0x2ED0, symBinAddr: 0x100004E70, symSize: 0x20 }
  - { offsetInCU: 0x139EE, offset: 0x139EE, size: 0x8, addend: 0x0, symName: __ZNKSt3__112basic_stringIcNS_11char_traitsIcEENS_9allocatorIcEEE7compareB7v160006ERKS5_, symObjAddr: 0x2F20, symBinAddr: 0x100004EC0, symSize: 0x40 }
  - { offsetInCU: 0x13A25, offset: 0x13A25, size: 0x8, addend: 0x0, symName: __ZNKSt3__112basic_stringIcNS_11char_traitsIcEENS_9allocatorIcEEE7compareINS_17basic_string_viewIcS2_EEEENS_9enable_ifIXsr33__can_be_converted_to_string_viewIcS2_T_EE5valueEiE4typeERKSA_, symObjAddr: 0x2F60, symBinAddr: 0x100004F00, symSize: 0xF0 }
  - { offsetInCU: 0x13AA2, offset: 0x13AA2, size: 0x8, addend: 0x0, symName: __ZNKSt3__112basic_stringIcNS_11char_traitsIcEENS_9allocatorIcEEEcvNS_17basic_string_viewIcS2_EEB7v160006Ev, symObjAddr: 0x3050, symBinAddr: 0x100004FF0, symSize: 0x50 }
  - { offsetInCU: 0x13AC8, offset: 0x13AC8, size: 0x8, addend: 0x0, symName: __ZNKSt3__112basic_stringIcNS_11char_traitsIcEENS_9allocatorIcEEE4sizeB7v160006Ev, symObjAddr: 0x30A0, symBinAddr: 0x100005040, symSize: 0x50 }
  - { offsetInCU: 0x13AEE, offset: 0x13AEE, size: 0x8, addend: 0x0, symName: __ZNKSt3__117basic_string_viewIcNS_11char_traitsIcEEE4sizeB7v160006Ev, symObjAddr: 0x30F0, symBinAddr: 0x100005090, symSize: 0x20 }
  - { offsetInCU: 0x13B14, offset: 0x13B14, size: 0x8, addend: 0x0, symName: __ZNSt3__111char_traitsIcE7compareEPKcS3_m, symObjAddr: 0x3110, symBinAddr: 0x1000050B0, symSize: 0x60 }
  - { offsetInCU: 0x13B53, offset: 0x13B53, size: 0x8, addend: 0x0, symName: __ZNKSt3__112basic_stringIcNS_11char_traitsIcEENS_9allocatorIcEEE4dataB7v160006Ev, symObjAddr: 0x3170, symBinAddr: 0x100005110, symSize: 0x30 }
  - { offsetInCU: 0x13B79, offset: 0x13B79, size: 0x8, addend: 0x0, symName: __ZNKSt3__117basic_string_viewIcNS_11char_traitsIcEEE4dataB7v160006Ev, symObjAddr: 0x31A0, symBinAddr: 0x100005140, symSize: 0x20 }
  - { offsetInCU: 0x13B9F, offset: 0x13B9F, size: 0x8, addend: 0x0, symName: __ZNKSt3__112basic_stringIcNS_11char_traitsIcEENS_9allocatorIcEEE9__is_longB7v160006Ev, symObjAddr: 0x31F0, symBinAddr: 0x100005190, symSize: 0x30 }
  - { offsetInCU: 0x13BC5, offset: 0x13BC5, size: 0x8, addend: 0x0, symName: __ZNKSt3__112basic_stringIcNS_11char_traitsIcEENS_9allocatorIcEEE15__get_long_sizeB7v160006Ev, symObjAddr: 0x3220, symBinAddr: 0x1000051C0, symSize: 0x20 }
  - { offsetInCU: 0x13BEB, offset: 0x13BEB, size: 0x8, addend: 0x0, symName: __ZNKSt3__112basic_stringIcNS_11char_traitsIcEENS_9allocatorIcEEE16__get_short_sizeB7v160006Ev, symObjAddr: 0x3240, symBinAddr: 0x1000051E0, symSize: 0x30 }
  - { offsetInCU: 0x13C11, offset: 0x13C11, size: 0x8, addend: 0x0, symName: __ZNKSt3__117__compressed_pairINS_12basic_stringIcNS_11char_traitsIcEENS_9allocatorIcEEE5__repES5_E5firstB7v160006Ev, symObjAddr: 0x3270, symBinAddr: 0x100005210, symSize: 0x20 }
  - { offsetInCU: 0x13C37, offset: 0x13C37, size: 0x8, addend: 0x0, symName: __ZNKSt3__122__compressed_pair_elemINS_12basic_stringIcNS_11char_traitsIcEENS_9allocatorIcEEE5__repELi0ELb0EE5__getB7v160006Ev, symObjAddr: 0x3290, symBinAddr: 0x100005230, symSize: 0x10 }
  - { offsetInCU: 0x13C5D, offset: 0x13C5D, size: 0x8, addend: 0x0, symName: __ZNKSt3__112basic_stringIcNS_11char_traitsIcEENS_9allocatorIcEEE13__get_pointerB7v160006Ev, symObjAddr: 0x32E0, symBinAddr: 0x100005280, symSize: 0x50 }
  - { offsetInCU: 0x13C83, offset: 0x13C83, size: 0x8, addend: 0x0, symName: __ZNKSt3__112basic_stringIcNS_11char_traitsIcEENS_9allocatorIcEEE18__get_long_pointerB7v160006Ev, symObjAddr: 0x3330, symBinAddr: 0x1000052D0, symSize: 0x20 }
  - { offsetInCU: 0x13CA9, offset: 0x13CA9, size: 0x8, addend: 0x0, symName: __ZNKSt3__112basic_stringIcNS_11char_traitsIcEENS_9allocatorIcEEE19__get_short_pointerB7v160006Ev, symObjAddr: 0x3350, symBinAddr: 0x1000052F0, symSize: 0x30 }
  - { offsetInCU: 0x13CCF, offset: 0x13CCF, size: 0x8, addend: 0x0, symName: __ZNSt3__114pointer_traitsIPKcE10pointer_toB7v160006ERS1_, symObjAddr: 0x3380, symBinAddr: 0x100005320, symSize: 0x10 }
  - { offsetInCU: 0x13CFC, offset: 0x13CFC, size: 0x8, addend: 0x0, symName: __ZNKSt3__16__lessImmEclB7v160006ERKmS3_, symObjAddr: 0x33E0, symBinAddr: 0x100005380, symSize: 0x30 }
  - { offsetInCU: 0x13D3E, offset: 0x13D3E, size: 0x8, addend: 0x0, symName: __ZNSt3__117basic_string_viewIcNS_11char_traitsIcEEEC1B7v160006EPKcm, symObjAddr: 0x3410, symBinAddr: 0x1000053B0, symSize: 0x30 }
  - { offsetInCU: 0x13D86, offset: 0x13D86, size: 0x8, addend: 0x0, symName: __ZNSt3__117basic_string_viewIcNS_11char_traitsIcEEEC2B7v160006EPKcm, symObjAddr: 0x3440, symBinAddr: 0x1000053E0, symSize: 0x50 }
  - { offsetInCU: 0x13DCE, offset: 0x13DCE, size: 0x8, addend: 0x0, symName: __ZNSt3__16__treeINS_12__value_typeINS_12basic_stringIcNS_11char_traitsIcEENS_9allocatorIcEEEENS_6vectorIiNS5_IiEEEEEENS_19__map_value_compareIS7_SB_NS_4lessIS7_EELb1EEENS5_ISB_EEE12__node_allocB7v160006Ev, symObjAddr: 0x34C0, symBinAddr: 0x100005460, symSize: 0x20 }
  - { offsetInCU: 0x13DF4, offset: 0x13DF4, size: 0x8, addend: 0x0, symName: __ZNSt3__116allocator_traitsINS_9allocatorINS_11__tree_nodeINS_12__value_typeINS_12basic_stringIcNS_11char_traitsIcEENS1_IcEEEENS_6vectorIiNS1_IiEEEEEEPvEEEEE8allocateB7v160006ERSF_m, symObjAddr: 0x34E0, symBinAddr: 0x100005480, symSize: 0x30 }
  - { offsetInCU: 0x13E27, offset: 0x13E27, size: 0x8, addend: 0x0, symName: __ZNSt3__122__tree_node_destructorINS_9allocatorINS_11__tree_nodeINS_12__value_typeINS_12basic_stringIcNS_11char_traitsIcEENS1_IcEEEENS_6vectorIiNS1_IiEEEEEEPvEEEEEC1B7v160006ERSF_b, symObjAddr: 0x3510, symBinAddr: 0x1000054B0, symSize: 0x40 }
  - { offsetInCU: 0x13E74, offset: 0x13E74, size: 0x8, addend: 0x0, symName: __ZNSt3__110unique_ptrINS_11__tree_nodeINS_12__value_typeINS_12basic_stringIcNS_11char_traitsIcEENS_9allocatorIcEEEENS_6vectorIiNS6_IiEEEEEEPvEENS_22__tree_node_destructorINS6_ISE_EEEEEC1B7v160006ILb1EvEEPSE_NS_16__dependent_typeINS_27__unique_ptr_deleter_sfinaeISH_EEXT_EE20__good_rval_ref_typeE, symObjAddr: 0x3550, symBinAddr: 0x1000054F0, symSize: 0x30 }
  - { offsetInCU: 0x13EC5, offset: 0x13EC5, size: 0x8, addend: 0x0, symName: __ZNSt3__116allocator_traitsINS_9allocatorINS_11__tree_nodeINS_12__value_typeINS_12basic_stringIcNS_11char_traitsIcEENS1_IcEEEENS_6vectorIiNS1_IiEEEEEEPvEEEEE9constructB7v160006INS_4pairIKS8_SB_EEJRKNS_21piecewise_construct_tENS_5tupleIJOS8_EEENSO_IJEEEEvEEvRSF_PT_DpOT0_, symObjAddr: 0x3580, symBinAddr: 0x100005520, symSize: 0x40 }
  - { offsetInCU: 0x13F44, offset: 0x13F44, size: 0x8, addend: 0x0, symName: __ZNSt3__122__tree_key_value_typesINS_12__value_typeINS_12basic_stringIcNS_11char_traitsIcEENS_9allocatorIcEEEENS_6vectorIiNS5_IiEEEEEEE9__get_ptrB7v160006ERSB_, symObjAddr: 0x35C0, symBinAddr: 0x100005560, symSize: 0x20 }
  - { offsetInCU: 0x13F68, offset: 0x13F68, size: 0x8, addend: 0x0, symName: __ZNKSt3__110unique_ptrINS_11__tree_nodeINS_12__value_typeINS_12basic_stringIcNS_11char_traitsIcEENS_9allocatorIcEEEENS_6vectorIiNS6_IiEEEEEEPvEENS_22__tree_node_destructorINS6_ISE_EEEEEptB7v160006Ev, symObjAddr: 0x35E0, symBinAddr: 0x100005580, symSize: 0x20 }
  - { offsetInCU: 0x13F8E, offset: 0x13F8E, size: 0x8, addend: 0x0, symName: __ZNSt3__110unique_ptrINS_11__tree_nodeINS_12__value_typeINS_12basic_stringIcNS_11char_traitsIcEENS_9allocatorIcEEEENS_6vectorIiNS6_IiEEEEEEPvEENS_22__tree_node_destructorINS6_ISE_EEEEE11get_deleterB7v160006Ev, symObjAddr: 0x3600, symBinAddr: 0x1000055A0, symSize: 0x20 }
  - { offsetInCU: 0x13FB4, offset: 0x13FB4, size: 0x8, addend: 0x0, symName: __ZNSt3__117__compressed_pairINS_15__tree_end_nodeIPNS_16__tree_node_baseIPvEEEENS_9allocatorINS_11__tree_nodeINS_12__value_typeINS_12basic_stringIcNS_11char_traitsIcEENS7_IcEEEENS_6vectorIiNS7_IiEEEEEES3_EEEEE6secondB7v160006Ev, symObjAddr: 0x3620, symBinAddr: 0x1000055C0, symSize: 0x20 }
  - { offsetInCU: 0x13FDA, offset: 0x13FDA, size: 0x8, addend: 0x0, symName: __ZNSt3__122__compressed_pair_elemINS_9allocatorINS_11__tree_nodeINS_12__value_typeINS_12basic_stringIcNS_11char_traitsIcEENS1_IcEEEENS_6vectorIiNS1_IiEEEEEEPvEEEELi1ELb1EE5__getB7v160006Ev, symObjAddr: 0x3640, symBinAddr: 0x1000055E0, symSize: 0x10 }
  - { offsetInCU: 0x14000, offset: 0x14000, size: 0x8, addend: 0x0, symName: __ZNSt3__19allocatorINS_11__tree_nodeINS_12__value_typeINS_12basic_stringIcNS_11char_traitsIcEENS0_IcEEEENS_6vectorIiNS0_IiEEEEEEPvEEE8allocateB7v160006Em, symObjAddr: 0x3650, symBinAddr: 0x1000055F0, symSize: 0x50 }
  - { offsetInCU: 0x1403E, offset: 0x1403E, size: 0x8, addend: 0x0, symName: __ZNSt3__116allocator_traitsINS_9allocatorINS_11__tree_nodeINS_12__value_typeINS_12basic_stringIcNS_11char_traitsIcEENS1_IcEEEENS_6vectorIiNS1_IiEEEEEEPvEEEEE8max_sizeB7v160006ISF_vEEmRKSF_, symObjAddr: 0x36A0, symBinAddr: 0x100005640, symSize: 0x20 }
  - { offsetInCU: 0x1406C, offset: 0x1406C, size: 0x8, addend: 0x0, symName: __ZNKSt3__19allocatorINS_11__tree_nodeINS_12__value_typeINS_12basic_stringIcNS_11char_traitsIcEENS0_IcEEEENS_6vectorIiNS0_IiEEEEEEPvEEE8max_sizeB7v160006Ev, symObjAddr: 0x3760, symBinAddr: 0x100005700, symSize: 0x20 }
  - { offsetInCU: 0x14092, offset: 0x14092, size: 0x8, addend: 0x0, symName: __ZNSt3__122__tree_node_destructorINS_9allocatorINS_11__tree_nodeINS_12__value_typeINS_12basic_stringIcNS_11char_traitsIcEENS1_IcEEEENS_6vectorIiNS1_IiEEEEEEPvEEEEEC2B7v160006ERSF_b, symObjAddr: 0x37F0, symBinAddr: 0x100005790, symSize: 0x30 }
  - { offsetInCU: 0x140DA, offset: 0x140DA, size: 0x8, addend: 0x0, symName: __ZNSt3__110unique_ptrINS_11__tree_nodeINS_12__value_typeINS_12basic_stringIcNS_11char_traitsIcEENS_9allocatorIcEEEENS_6vectorIiNS6_IiEEEEEEPvEENS_22__tree_node_destructorINS6_ISE_EEEEEC2B7v160006ILb1EvEEPSE_NS_16__dependent_typeINS_27__unique_ptr_deleter_sfinaeISH_EEXT_EE20__good_rval_ref_typeE, symObjAddr: 0x3820, symBinAddr: 0x1000057C0, symSize: 0x40 }
  - { offsetInCU: 0x1412B, offset: 0x1412B, size: 0x8, addend: 0x0, symName: __ZNSt3__117__compressed_pairIPNS_11__tree_nodeINS_12__value_typeINS_12basic_stringIcNS_11char_traitsIcEENS_9allocatorIcEEEENS_6vectorIiNS6_IiEEEEEEPvEENS_22__tree_node_destructorINS6_ISE_EEEEEC1B7v160006IRSF_SI_EEOT_OT0_, symObjAddr: 0x3860, symBinAddr: 0x100005800, symSize: 0x30 }
  - { offsetInCU: 0x14183, offset: 0x14183, size: 0x8, addend: 0x0, symName: __ZNSt3__117__compressed_pairIPNS_11__tree_nodeINS_12__value_typeINS_12basic_stringIcNS_11char_traitsIcEENS_9allocatorIcEEEENS_6vectorIiNS6_IiEEEEEEPvEENS_22__tree_node_destructorINS6_ISE_EEEEEC2B7v160006IRSF_SI_EEOT_OT0_, symObjAddr: 0x3890, symBinAddr: 0x100005830, symSize: 0x40 }
  - { offsetInCU: 0x141DB, offset: 0x141DB, size: 0x8, addend: 0x0, symName: __ZNSt3__122__compressed_pair_elemIPNS_11__tree_nodeINS_12__value_typeINS_12basic_stringIcNS_11char_traitsIcEENS_9allocatorIcEEEENS_6vectorIiNS6_IiEEEEEEPvEELi0ELb0EEC2B7v160006IRSF_vEEOT_, symObjAddr: 0x38D0, symBinAddr: 0x100005870, symSize: 0x20 }
  - { offsetInCU: 0x1421D, offset: 0x1421D, size: 0x8, addend: 0x0, symName: __ZNSt3__122__compressed_pair_elemINS_22__tree_node_destructorINS_9allocatorINS_11__tree_nodeINS_12__value_typeINS_12basic_stringIcNS_11char_traitsIcEENS2_IcEEEENS_6vectorIiNS2_IiEEEEEEPvEEEEEELi1ELb0EEC2B7v160006ISH_vEEOT_, symObjAddr: 0x38F0, symBinAddr: 0x100005890, symSize: 0x30 }
  - { offsetInCU: 0x1425F, offset: 0x1425F, size: 0x8, addend: 0x0, symName: __ZNSt3__19allocatorINS_11__tree_nodeINS_12__value_typeINS_12basic_stringIcNS_11char_traitsIcEENS0_IcEEEENS_6vectorIiNS0_IiEEEEEEPvEEE9constructB7v160006INS_4pairIKS7_SA_EEJRKNS_21piecewise_construct_tENS_5tupleIJOS7_EEENSM_IJEEEEEEvPT_DpOT0_, symObjAddr: 0x3920, symBinAddr: 0x1000058C0, symSize: 0x40 }
  - { offsetInCU: 0x142DB, offset: 0x142DB, size: 0x8, addend: 0x0, symName: __ZNSt3__14pairIKNS_12basic_stringIcNS_11char_traitsIcEENS_9allocatorIcEEEENS_6vectorIiNS4_IiEEEEEC1B7v160006IJOS6_EJEEENS_21piecewise_construct_tENS_5tupleIJDpT_EEENSF_IJDpT0_EEE, symObjAddr: 0x3960, symBinAddr: 0x100005900, symSize: 0x40 }
  - { offsetInCU: 0x14342, offset: 0x14342, size: 0x8, addend: 0x0, symName: __ZNSt3__14pairIKNS_12basic_stringIcNS_11char_traitsIcEENS_9allocatorIcEEEENS_6vectorIiNS4_IiEEEEEC1B7v160006IJOS6_EJEJLm0EEJEEENS_21piecewise_construct_tERNS_5tupleIJDpT_EEERNSF_IJDpT0_EEENS_15__tuple_indicesIJXspT1_EEEENSO_IJXspT2_EEEE, symObjAddr: 0x39A0, symBinAddr: 0x100005940, symSize: 0x30 }
  - { offsetInCU: 0x143CF, offset: 0x143CF, size: 0x8, addend: 0x0, symName: __ZNSt3__14pairIKNS_12basic_stringIcNS_11char_traitsIcEENS_9allocatorIcEEEENS_6vectorIiNS4_IiEEEEEC2B7v160006IJOS6_EJEJLm0EEJEEENS_21piecewise_construct_tERNS_5tupleIJDpT_EEERNSF_IJDpT0_EEENS_15__tuple_indicesIJXspT1_EEEENSO_IJXspT2_EEEE, symObjAddr: 0x39D0, symBinAddr: 0x100005970, symSize: 0x50 }
  - { offsetInCU: 0x1445C, offset: 0x1445C, size: 0x8, addend: 0x0, symName: __ZNSt3__112basic_stringIcNS_11char_traitsIcEENS_9allocatorIcEEEC1B7v160006EOS5_, symObjAddr: 0x3A40, symBinAddr: 0x1000059E0, symSize: 0x30 }
  - { offsetInCU: 0x14495, offset: 0x14495, size: 0x8, addend: 0x0, symName: __ZNSt3__16vectorIiNS_9allocatorIiEEEC1B7v160006Ev, symObjAddr: 0x3A70, symBinAddr: 0x100005A10, symSize: 0x20 }
  - { offsetInCU: 0x144BF, offset: 0x144BF, size: 0x8, addend: 0x0, symName: __ZNSt3__112__tuple_leafILm0EONS_12basic_stringIcNS_11char_traitsIcEENS_9allocatorIcEEEELb0EE3getB7v160006Ev, symObjAddr: 0x3A90, symBinAddr: 0x100005A30, symSize: 0x20 }
  - { offsetInCU: 0x144E5, offset: 0x144E5, size: 0x8, addend: 0x0, symName: __ZNSt3__112basic_stringIcNS_11char_traitsIcEENS_9allocatorIcEEEC2B7v160006EOS5_, symObjAddr: 0x3AB0, symBinAddr: 0x100005A50, symSize: 0x90 }
  - { offsetInCU: 0x1451E, offset: 0x1451E, size: 0x8, addend: 0x0, symName: __ZNSt3__112basic_stringIcNS_11char_traitsIcEENS_9allocatorIcEEE14__default_initB7v160006Ev, symObjAddr: 0x3B40, symBinAddr: 0x100005AE0, symSize: 0x50 }
  - { offsetInCU: 0x14544, offset: 0x14544, size: 0x8, addend: 0x0, symName: __ZNSt3__117__compressed_pairINS_12basic_stringIcNS_11char_traitsIcEENS_9allocatorIcEEE5__repES5_E5firstB7v160006Ev, symObjAddr: 0x3BB0, symBinAddr: 0x100005B50, symSize: 0x20 }
  - { offsetInCU: 0x1456A, offset: 0x1456A, size: 0x8, addend: 0x0, symName: __ZNSt3__122__compressed_pair_elemINS_12basic_stringIcNS_11char_traitsIcEENS_9allocatorIcEEE5__repELi0ELb0EE5__getB7v160006Ev, symObjAddr: 0x3BD0, symBinAddr: 0x100005B70, symSize: 0x10 }
  - { offsetInCU: 0x14590, offset: 0x14590, size: 0x8, addend: 0x0, symName: __ZNSt3__16vectorIiNS_9allocatorIiEEEC2B7v160006Ev, symObjAddr: 0x3BE0, symBinAddr: 0x100005B80, symSize: 0x60 }
  - { offsetInCU: 0x145C4, offset: 0x145C4, size: 0x8, addend: 0x0, symName: __ZNSt3__117__compressed_pairIPiNS_9allocatorIiEEEC1B7v160006IDnNS_18__default_init_tagEEEOT_OT0_, symObjAddr: 0x3C40, symBinAddr: 0x100005BE0, symSize: 0x30 }
  - { offsetInCU: 0x1461C, offset: 0x1461C, size: 0x8, addend: 0x0, symName: __ZNSt3__117__compressed_pairIPiNS_9allocatorIiEEEC2B7v160006IDnNS_18__default_init_tagEEEOT_OT0_, symObjAddr: 0x3C80, symBinAddr: 0x100005C20, symSize: 0x40 }
  - { offsetInCU: 0x14674, offset: 0x14674, size: 0x8, addend: 0x0, symName: __ZNSt3__122__compressed_pair_elemIPiLi0ELb0EEC2B7v160006IDnvEEOT_, symObjAddr: 0x3CC0, symBinAddr: 0x100005C60, symSize: 0x20 }
  - { offsetInCU: 0x146B6, offset: 0x146B6, size: 0x8, addend: 0x0, symName: __ZNSt3__122__compressed_pair_elemINS_9allocatorIiEELi1ELb1EEC2B7v160006ENS_18__default_init_tagE, symObjAddr: 0x3CE0, symBinAddr: 0x100005C80, symSize: 0x20 }
  - { offsetInCU: 0x146EA, offset: 0x146EA, size: 0x8, addend: 0x0, symName: __ZNSt3__19allocatorIiEC2B7v160006Ev, symObjAddr: 0x3D00, symBinAddr: 0x100005CA0, symSize: 0x20 }
  - { offsetInCU: 0x14714, offset: 0x14714, size: 0x8, addend: 0x0, symName: __ZNSt3__116__non_trivial_ifILb1ENS_9allocatorIiEEEC2B7v160006Ev, symObjAddr: 0x3D20, symBinAddr: 0x100005CC0, symSize: 0x10 }
  - { offsetInCU: 0x1473E, offset: 0x1473E, size: 0x8, addend: 0x0, symName: __ZNKSt3__117__compressed_pairIPNS_11__tree_nodeINS_12__value_typeINS_12basic_stringIcNS_11char_traitsIcEENS_9allocatorIcEEEENS_6vectorIiNS6_IiEEEEEEPvEENS_22__tree_node_destructorINS6_ISE_EEEEE5firstB7v160006Ev, symObjAddr: 0x3D30, symBinAddr: 0x100005CD0, symSize: 0x20 }
  - { offsetInCU: 0x14764, offset: 0x14764, size: 0x8, addend: 0x0, symName: __ZNKSt3__122__compressed_pair_elemIPNS_11__tree_nodeINS_12__value_typeINS_12basic_stringIcNS_11char_traitsIcEENS_9allocatorIcEEEENS_6vectorIiNS6_IiEEEEEEPvEELi0ELb0EE5__getB7v160006Ev, symObjAddr: 0x3D50, symBinAddr: 0x100005CF0, symSize: 0x10 }
  - { offsetInCU: 0x1478A, offset: 0x1478A, size: 0x8, addend: 0x0, symName: __ZNSt3__117__compressed_pairIPNS_11__tree_nodeINS_12__value_typeINS_12basic_stringIcNS_11char_traitsIcEENS_9allocatorIcEEEENS_6vectorIiNS6_IiEEEEEEPvEENS_22__tree_node_destructorINS6_ISE_EEEEE6secondB7v160006Ev, symObjAddr: 0x3D60, symBinAddr: 0x100005D00, symSize: 0x20 }
  - { offsetInCU: 0x147B0, offset: 0x147B0, size: 0x8, addend: 0x0, symName: __ZNSt3__122__compressed_pair_elemINS_22__tree_node_destructorINS_9allocatorINS_11__tree_nodeINS_12__value_typeINS_12basic_stringIcNS_11char_traitsIcEENS2_IcEEEENS_6vectorIiNS2_IiEEEEEEPvEEEEEELi1ELb0EE5__getB7v160006Ev, symObjAddr: 0x3D80, symBinAddr: 0x100005D20, symSize: 0x10 }
  - { offsetInCU: 0x147D6, offset: 0x147D6, size: 0x8, addend: 0x0, symName: __ZNSt3__16__treeINS_12__value_typeINS_12basic_stringIcNS_11char_traitsIcEENS_9allocatorIcEEEENS_6vectorIiNS5_IiEEEEEENS_19__map_value_compareIS7_SB_NS_4lessIS7_EELb1EEENS5_ISB_EEE4sizeB7v160006Ev, symObjAddr: 0x40B0, symBinAddr: 0x100006050, symSize: 0x20 }
  - { offsetInCU: 0x147FC, offset: 0x147FC, size: 0x8, addend: 0x0, symName: __ZNKSt3__116__tree_node_baseIPvE15__parent_unsafeB7v160006Ev, symObjAddr: 0x40D0, symBinAddr: 0x100006070, symSize: 0x20 }
  - { offsetInCU: 0x14822, offset: 0x14822, size: 0x8, addend: 0x0, symName: __ZNSt3__116__tree_node_baseIPvE12__set_parentB7v160006EPS2_, symObjAddr: 0x42B0, symBinAddr: 0x100006250, symSize: 0x20 }
  - { offsetInCU: 0x14857, offset: 0x14857, size: 0x8, addend: 0x0, symName: __ZNSt3__117__compressed_pairImNS_19__map_value_compareINS_12basic_stringIcNS_11char_traitsIcEENS_9allocatorIcEEEENS_12__value_typeIS7_NS_6vectorIiNS5_IiEEEEEENS_4lessIS7_EELb1EEEE5firstB7v160006Ev, symObjAddr: 0x42D0, symBinAddr: 0x100006270, symSize: 0x20 }
  - { offsetInCU: 0x1487D, offset: 0x1487D, size: 0x8, addend: 0x0, symName: __ZNSt3__122__compressed_pair_elemImLi0ELb0EE5__getB7v160006Ev, symObjAddr: 0x42F0, symBinAddr: 0x100006290, symSize: 0x10 }
  - { offsetInCU: 0x148A3, offset: 0x148A3, size: 0x8, addend: 0x0, symName: __ZNSt3__117__compressed_pairIPNS_11__tree_nodeINS_12__value_typeINS_12basic_stringIcNS_11char_traitsIcEENS_9allocatorIcEEEENS_6vectorIiNS6_IiEEEEEEPvEENS_22__tree_node_destructorINS6_ISE_EEEEE5firstB7v160006Ev, symObjAddr: 0x4300, symBinAddr: 0x1000062A0, symSize: 0x20 }
  - { offsetInCU: 0x148C9, offset: 0x148C9, size: 0x8, addend: 0x0, symName: __ZNSt3__122__compressed_pair_elemIPNS_11__tree_nodeINS_12__value_typeINS_12basic_stringIcNS_11char_traitsIcEENS_9allocatorIcEEEENS_6vectorIiNS6_IiEEEEEEPvEELi0ELb0EE5__getB7v160006Ev, symObjAddr: 0x4320, symBinAddr: 0x1000062C0, symSize: 0x10 }
  - { offsetInCU: 0x148EF, offset: 0x148EF, size: 0x8, addend: 0x0, symName: __ZNSt3__110unique_ptrINS_11__tree_nodeINS_12__value_typeINS_12basic_stringIcNS_11char_traitsIcEENS_9allocatorIcEEEENS_6vectorIiNS6_IiEEEEEEPvEENS_22__tree_node_destructorINS6_ISE_EEEEED2B7v160006Ev, symObjAddr: 0x4330, symBinAddr: 0x1000062D0, symSize: 0x20 }
  - { offsetInCU: 0x14919, offset: 0x14919, size: 0x8, addend: 0x0, symName: __ZNSt3__110unique_ptrINS_11__tree_nodeINS_12__value_typeINS_12basic_stringIcNS_11char_traitsIcEENS_9allocatorIcEEEENS_6vectorIiNS6_IiEEEEEEPvEENS_22__tree_node_destructorINS6_ISE_EEEEE5resetB7v160006EPSE_, symObjAddr: 0x4350, symBinAddr: 0x1000062F0, symSize: 0x70 }
  - { offsetInCU: 0x1495D, offset: 0x1495D, size: 0x8, addend: 0x0, symName: __ZNSt3__122__tree_node_destructorINS_9allocatorINS_11__tree_nodeINS_12__value_typeINS_12basic_stringIcNS_11char_traitsIcEENS1_IcEEEENS_6vectorIiNS1_IiEEEEEEPvEEEEEclB7v160006EPSE_, symObjAddr: 0x43C0, symBinAddr: 0x100006360, symSize: 0x90 }
  - { offsetInCU: 0x14992, offset: 0x14992, size: 0x8, addend: 0x0, symName: __ZNSt3__116allocator_traitsINS_9allocatorINS_11__tree_nodeINS_12__value_typeINS_12basic_stringIcNS_11char_traitsIcEENS1_IcEEEENS_6vectorIiNS1_IiEEEEEEPvEEEEE7destroyB7v160006INS_4pairIKS8_SB_EEvvEEvRSF_PT_, symObjAddr: 0x4450, symBinAddr: 0x1000063F0, symSize: 0x20 }
  - { offsetInCU: 0x149CC, offset: 0x149CC, size: 0x8, addend: 0x0, symName: __ZNSt3__116allocator_traitsINS_9allocatorINS_11__tree_nodeINS_12__value_typeINS_12basic_stringIcNS_11char_traitsIcEENS1_IcEEEENS_6vectorIiNS1_IiEEEEEEPvEEEEE10deallocateB7v160006ERSF_PSE_m, symObjAddr: 0x4470, symBinAddr: 0x100006410, symSize: 0x30 }
  - { offsetInCU: 0x14A0E, offset: 0x14A0E, size: 0x8, addend: 0x0, symName: __ZNSt3__14pairIKNS_12basic_stringIcNS_11char_traitsIcEENS_9allocatorIcEEEENS_6vectorIiNS4_IiEEEEED1Ev, symObjAddr: 0x44A0, symBinAddr: 0x100006440, symSize: 0x20 }
  - { offsetInCU: 0x14A3A, offset: 0x14A3A, size: 0x8, addend: 0x0, symName: __ZNSt3__14pairIKNS_12basic_stringIcNS_11char_traitsIcEENS_9allocatorIcEEEENS_6vectorIiNS4_IiEEEEED2Ev, symObjAddr: 0x44C0, symBinAddr: 0x100006460, symSize: 0x30 }
  - { offsetInCU: 0x14A66, offset: 0x14A66, size: 0x8, addend: 0x0, symName: __ZNSt3__16vectorIiNS_9allocatorIiEEED1B7v160006Ev, symObjAddr: 0x44F0, symBinAddr: 0x100006490, symSize: 0x20 }
  - { offsetInCU: 0x14A90, offset: 0x14A90, size: 0x8, addend: 0x0, symName: __ZNSt3__16vectorIiNS_9allocatorIiEEED2B7v160006Ev, symObjAddr: 0x4510, symBinAddr: 0x1000064B0, symSize: 0x40 }
  - { offsetInCU: 0x14ABA, offset: 0x14ABA, size: 0x8, addend: 0x0, symName: __ZNSt3__16vectorIiNS_9allocatorIiEEE16__destroy_vectorC1ERS3_, symObjAddr: 0x4550, symBinAddr: 0x1000064F0, symSize: 0x30 }
  - { offsetInCU: 0x14AF3, offset: 0x14AF3, size: 0x8, addend: 0x0, symName: __ZNSt3__16vectorIiNS_9allocatorIiEEE16__destroy_vectorclB7v160006Ev, symObjAddr: 0x4580, symBinAddr: 0x100006520, symSize: 0x90 }
  - { offsetInCU: 0x14B19, offset: 0x14B19, size: 0x8, addend: 0x0, symName: __ZNSt3__16vectorIiNS_9allocatorIiEEE16__destroy_vectorC2ERS3_, symObjAddr: 0x4610, symBinAddr: 0x1000065B0, symSize: 0x20 }
  - { offsetInCU: 0x14B52, offset: 0x14B52, size: 0x8, addend: 0x0, symName: __ZNKSt3__16vectorIiNS_9allocatorIiEEE17__annotate_deleteB7v160006Ev, symObjAddr: 0x4630, symBinAddr: 0x1000065D0, symSize: 0xB0 }
  - { offsetInCU: 0x14B78, offset: 0x14B78, size: 0x8, addend: 0x0, symName: __ZNSt3__16vectorIiNS_9allocatorIiEEE7__clearB7v160006Ev, symObjAddr: 0x46F0, symBinAddr: 0x100006690, symSize: 0x20 }
  - { offsetInCU: 0x14B9E, offset: 0x14B9E, size: 0x8, addend: 0x0, symName: __ZNSt3__116allocator_traitsINS_9allocatorIiEEE10deallocateB7v160006ERS2_Pim, symObjAddr: 0x4710, symBinAddr: 0x1000066B0, symSize: 0x30 }
  - { offsetInCU: 0x14BE0, offset: 0x14BE0, size: 0x8, addend: 0x0, symName: __ZNSt3__16vectorIiNS_9allocatorIiEEE7__allocB7v160006Ev, symObjAddr: 0x4740, symBinAddr: 0x1000066E0, symSize: 0x20 }
  - { offsetInCU: 0x14C06, offset: 0x14C06, size: 0x8, addend: 0x0, symName: __ZNKSt3__16vectorIiNS_9allocatorIiEEE8capacityB7v160006Ev, symObjAddr: 0x4760, symBinAddr: 0x100006700, symSize: 0x30 }
  - { offsetInCU: 0x14C2C, offset: 0x14C2C, size: 0x8, addend: 0x0, symName: __ZNKSt3__16vectorIiNS_9allocatorIiEEE31__annotate_contiguous_containerB7v160006EPKvS5_S5_S5_, symObjAddr: 0x4790, symBinAddr: 0x100006730, symSize: 0x20 }
  - { offsetInCU: 0x14C7E, offset: 0x14C7E, size: 0x8, addend: 0x0, symName: __ZNKSt3__16vectorIiNS_9allocatorIiEEE4dataB7v160006Ev, symObjAddr: 0x47B0, symBinAddr: 0x100006750, symSize: 0x20 }
  - { offsetInCU: 0x14CA4, offset: 0x14CA4, size: 0x8, addend: 0x0, symName: __ZNKSt3__16vectorIiNS_9allocatorIiEEE4sizeB7v160006Ev, symObjAddr: 0x47D0, symBinAddr: 0x100006770, symSize: 0x20 }
  - { offsetInCU: 0x14CCA, offset: 0x14CCA, size: 0x8, addend: 0x0, symName: __ZNSt3__16vectorIiNS_9allocatorIiEEE22__base_destruct_at_endB7v160006EPi, symObjAddr: 0x4800, symBinAddr: 0x1000067A0, symSize: 0x80 }
  - { offsetInCU: 0x14D0E, offset: 0x14D0E, size: 0x8, addend: 0x0, symName: __ZNSt3__116allocator_traitsINS_9allocatorIiEEE7destroyB7v160006IivEEvRS2_PT_, symObjAddr: 0x4880, symBinAddr: 0x100006820, symSize: 0x30 }
  - { offsetInCU: 0x14D4B, offset: 0x14D4B, size: 0x8, addend: 0x0, symName: __ZNSt3__19allocatorIiE7destroyB7v160006EPi, symObjAddr: 0x48B0, symBinAddr: 0x100006850, symSize: 0x10 }
  - { offsetInCU: 0x14D7F, offset: 0x14D7F, size: 0x8, addend: 0x0, symName: __ZNSt3__19allocatorIiE10deallocateB7v160006EPim, symObjAddr: 0x48C0, symBinAddr: 0x100006860, symSize: 0x40 }
  - { offsetInCU: 0x14DC1, offset: 0x14DC1, size: 0x8, addend: 0x0, symName: __ZNSt3__117__compressed_pairIPiNS_9allocatorIiEEE6secondB7v160006Ev, symObjAddr: 0x4A00, symBinAddr: 0x1000069A0, symSize: 0x20 }
  - { offsetInCU: 0x14DE7, offset: 0x14DE7, size: 0x8, addend: 0x0, symName: __ZNSt3__122__compressed_pair_elemINS_9allocatorIiEELi1ELb1EE5__getB7v160006Ev, symObjAddr: 0x4A20, symBinAddr: 0x1000069C0, symSize: 0x10 }
  - { offsetInCU: 0x14E0D, offset: 0x14E0D, size: 0x8, addend: 0x0, symName: __ZNKSt3__16vectorIiNS_9allocatorIiEEE9__end_capB7v160006Ev, symObjAddr: 0x4A30, symBinAddr: 0x1000069D0, symSize: 0x20 }
  - { offsetInCU: 0x14E33, offset: 0x14E33, size: 0x8, addend: 0x0, symName: __ZNKSt3__117__compressed_pairIPiNS_9allocatorIiEEE5firstB7v160006Ev, symObjAddr: 0x4A50, symBinAddr: 0x1000069F0, symSize: 0x20 }
  - { offsetInCU: 0x14E59, offset: 0x14E59, size: 0x8, addend: 0x0, symName: __ZNKSt3__122__compressed_pair_elemIPiLi0ELb0EE5__getB7v160006Ev, symObjAddr: 0x4A70, symBinAddr: 0x100006A10, symSize: 0x10 }
  - { offsetInCU: 0x14E7F, offset: 0x14E7F, size: 0x8, addend: 0x0, symName: __ZNSt3__19allocatorINS_11__tree_nodeINS_12__value_typeINS_12basic_stringIcNS_11char_traitsIcEENS0_IcEEEENS_6vectorIiNS0_IiEEEEEEPvEEE10deallocateB7v160006EPSD_m, symObjAddr: 0x4A80, symBinAddr: 0x100006A20, symSize: 0x50 }
  - { offsetInCU: 0x14EC1, offset: 0x14EC1, size: 0x8, addend: 0x0, symName: __ZNSt3__115__tree_iteratorINS_12__value_typeINS_12basic_stringIcNS_11char_traitsIcEENS_9allocatorIcEEEENS_6vectorIiNS5_IiEEEEEEPNS_11__tree_nodeISB_PvEElEC2B7v160006ESF_, symObjAddr: 0x4AD0, symBinAddr: 0x100006A70, symSize: 0x20 }
  - { offsetInCU: 0x14EFA, offset: 0x14EFA, size: 0x8, addend: 0x0, symName: __ZNSt3__14pairINS_15__tree_iteratorINS_12__value_typeINS_12basic_stringIcNS_11char_traitsIcEENS_9allocatorIcEEEENS_6vectorIiNS6_IiEEEEEEPNS_11__tree_nodeISC_PvEElEEbEC2B7v160006ISH_RbLSE_0EEEOT_OT0_, symObjAddr: 0x4AF0, symBinAddr: 0x100006A90, symSize: 0x30 }
  - { offsetInCU: 0x14F58, offset: 0x14F58, size: 0x8, addend: 0x0, symName: __ZNSt3__15tupleIJONS_12basic_stringIcNS_11char_traitsIcEENS_9allocatorIcEEEEEEC1B7v160006IJS6_ELi0EEEDpOT_, symObjAddr: 0x4B20, symBinAddr: 0x100006AC0, symSize: 0x30 }
  - { offsetInCU: 0x14FA2, offset: 0x14FA2, size: 0x8, addend: 0x0, symName: __ZNSt3__15tupleIJONS_12basic_stringIcNS_11char_traitsIcEENS_9allocatorIcEEEEEEC2B7v160006IJS6_ELi0EEEDpOT_, symObjAddr: 0x4B50, symBinAddr: 0x100006AF0, symSize: 0x30 }
  - { offsetInCU: 0x14FEC, offset: 0x14FEC, size: 0x8, addend: 0x0, symName: __ZNSt3__112__tuple_implINS_15__tuple_indicesIJLm0EEEEJONS_12basic_stringIcNS_11char_traitsIcEENS_9allocatorIcEEEEEEC1B7v160006IJLm0EEJS9_EJEJEJS8_EEENS1_IJXspT_EEEENS_13__tuple_typesIJDpT0_EEENS1_IJXspT1_EEEENSD_IJDpT2_EEEDpOT3_, symObjAddr: 0x4B80, symBinAddr: 0x100006B20, symSize: 0x30 }
  - { offsetInCU: 0x1507D, offset: 0x1507D, size: 0x8, addend: 0x0, symName: __ZNSt3__112__tuple_implINS_15__tuple_indicesIJLm0EEEEJONS_12basic_stringIcNS_11char_traitsIcEENS_9allocatorIcEEEEEEC2B7v160006IJLm0EEJS9_EJEJEJS8_EEENS1_IJXspT_EEEENS_13__tuple_typesIJDpT0_EEENS1_IJXspT1_EEEENSD_IJDpT2_EEEDpOT3_, symObjAddr: 0x4BB0, symBinAddr: 0x100006B50, symSize: 0x30 }
  - { offsetInCU: 0x1510E, offset: 0x1510E, size: 0x8, addend: 0x0, symName: __ZNSt3__112__tuple_leafILm0EONS_12basic_stringIcNS_11char_traitsIcEENS_9allocatorIcEEEELb0EEC2B7v160006IS6_vEEOT_, symObjAddr: 0x4BE0, symBinAddr: 0x100006B80, symSize: 0x20 }
  - { offsetInCU: 0x15151, offset: 0x15151, size: 0x8, addend: 0x0, symName: __ZNSt3__114pointer_traitsIPNS_12__value_typeINS_12basic_stringIcNS_11char_traitsIcEENS_9allocatorIcEEEENS_6vectorIiNS5_IiEEEEEEE10pointer_toB7v160006ERSB_, symObjAddr: 0x4C00, symBinAddr: 0x100006BA0, symSize: 0x10 }
  - { offsetInCU: 0x15174, offset: 0x15174, size: 0x8, addend: 0x0, symName: __ZNKSt3__115__tree_iteratorINS_12__value_typeINS_12basic_stringIcNS_11char_traitsIcEENS_9allocatorIcEEEENS_6vectorIiNS5_IiEEEEEEPNS_11__tree_nodeISB_PvEElE8__get_npB7v160006Ev, symObjAddr: 0x4C10, symBinAddr: 0x100006BB0, symSize: 0x20 }
  - { offsetInCU: 0x1519A, offset: 0x1519A, size: 0x8, addend: 0x0, symName: __ZNSt3__16vectorIiNS_9allocatorIiEEE6assignIPKiLi0EEEvT_S7_, symObjAddr: 0x4C60, symBinAddr: 0x100006C00, symSize: 0x160 }
  - { offsetInCU: 0x15239, offset: 0x15239, size: 0x8, addend: 0x0, symName: __ZNKSt16initializer_listIiE5beginB7v160006Ev, symObjAddr: 0x4DC0, symBinAddr: 0x100006D60, symSize: 0x20 }
  - { offsetInCU: 0x1525F, offset: 0x1525F, size: 0x8, addend: 0x0, symName: __ZNKSt16initializer_listIiE3endB7v160006Ev, symObjAddr: 0x4DE0, symBinAddr: 0x100006D80, symSize: 0x20 }
  - { offsetInCU: 0x15285, offset: 0x15285, size: 0x8, addend: 0x0, symName: __ZNSt3__16vectorIiNS_9allocatorIiEEE18__construct_at_endIPKiLi0EEEvT_S7_m, symObjAddr: 0x4EC0, symBinAddr: 0x100006E60, symSize: 0x90 }
  - { offsetInCU: 0x152F8, offset: 0x152F8, size: 0x8, addend: 0x0, symName: __ZNSt3__16vectorIiNS_9allocatorIiEEE17__destruct_at_endB7v160006EPi, symObjAddr: 0x4F50, symBinAddr: 0x100006EF0, symSize: 0x60 }
  - { offsetInCU: 0x1533C, offset: 0x1533C, size: 0x8, addend: 0x0, symName: __ZNSt3__16vectorIiNS_9allocatorIiEEE13__vdeallocateEv, symObjAddr: 0x4FB0, symBinAddr: 0x100006F50, symSize: 0x80 }
  - { offsetInCU: 0x15364, offset: 0x15364, size: 0x8, addend: 0x0, symName: __ZNSt3__16vectorIiNS_9allocatorIiEEE11__vallocateB7v160006Em, symObjAddr: 0x5030, symBinAddr: 0x100006FD0, symSize: 0xA0 }
  - { offsetInCU: 0x153A8, offset: 0x153A8, size: 0x8, addend: 0x0, symName: __ZNKSt3__16vectorIiNS_9allocatorIiEEE11__recommendB7v160006Em, symObjAddr: 0x50D0, symBinAddr: 0x100007070, symSize: 0xA0 }
  - { offsetInCU: 0x15420, offset: 0x15420, size: 0x8, addend: 0x0, symName: __ZNKSt3__114__copy_trivialclB7v160006IKiiLi0EEENS_4pairIPT_PT0_EES5_S5_S7_, symObjAddr: 0x5350, symBinAddr: 0x1000072F0, symSize: 0x40 }
  - { offsetInCU: 0x154A6, offset: 0x154A6, size: 0x8, addend: 0x0, symName: __ZNSt3__14pairIPKiS2_EC1B7v160006IS2_S2_LPv0EEEOT_OT0_, symObjAddr: 0x54A0, symBinAddr: 0x100007440, symSize: 0x30 }
  - { offsetInCU: 0x15504, offset: 0x15504, size: 0x8, addend: 0x0, symName: __ZNSt3__14pairIPKiS2_EC2B7v160006IS2_S2_LPv0EEEOT_OT0_, symObjAddr: 0x54D0, symBinAddr: 0x100007470, symSize: 0x30 }
  - { offsetInCU: 0x15562, offset: 0x15562, size: 0x8, addend: 0x0, symName: __ZNSt3__118__unwrap_iter_implIPKiLb1EE8__unwrapB7v160006ES2_, symObjAddr: 0x5500, symBinAddr: 0x1000074A0, symSize: 0x20 }
  - { offsetInCU: 0x1558F, offset: 0x1558F, size: 0x8, addend: 0x0, symName: __ZNSt3__14pairIPKiPiEC1B7v160006IRS2_S3_LPv0EEEOT_OT0_, symObjAddr: 0x55D0, symBinAddr: 0x100007570, symSize: 0x30 }
  - { offsetInCU: 0x155ED, offset: 0x155ED, size: 0x8, addend: 0x0, symName: __ZNSt3__14pairIPKiPiEC2B7v160006IRS2_S3_LPv0EEEOT_OT0_, symObjAddr: 0x5600, symBinAddr: 0x1000075A0, symSize: 0x30 }
  - { offsetInCU: 0x1564B, offset: 0x1564B, size: 0x8, addend: 0x0, symName: __ZNSt3__118__unwrap_iter_implIPiLb1EE8__unwrapB7v160006ES1_, symObjAddr: 0x5630, symBinAddr: 0x1000075D0, symSize: 0x20 }
  - { offsetInCU: 0x1566E, offset: 0x1566E, size: 0x8, addend: 0x0, symName: __ZNSt3__14pairIPKiPiEC1B7v160006IS2_S3_LPv0EEEOT_OT0_, symObjAddr: 0x5650, symBinAddr: 0x1000075F0, symSize: 0x30 }
  - { offsetInCU: 0x156CC, offset: 0x156CC, size: 0x8, addend: 0x0, symName: __ZNSt3__14pairIPKiPiEC2B7v160006IS2_S3_LPv0EEEOT_OT0_, symObjAddr: 0x5680, symBinAddr: 0x100007620, symSize: 0x30 }
  - { offsetInCU: 0x1572A, offset: 0x1572A, size: 0x8, addend: 0x0, symName: __ZNSt3__118__unwrap_iter_implIPKiLb1EE8__rewrapB7v160006ES2_S2_, symObjAddr: 0x56F0, symBinAddr: 0x100007690, symSize: 0x50 }
  - { offsetInCU: 0x1575B, offset: 0x1575B, size: 0x8, addend: 0x0, symName: __ZNSt3__118__unwrap_iter_implIPiLb1EE8__rewrapB7v160006ES1_S1_, symObjAddr: 0x5740, symBinAddr: 0x1000076E0, symSize: 0x50 }
  - { offsetInCU: 0x157A5, offset: 0x157A5, size: 0x8, addend: 0x0, symName: __ZNSt3__16vectorIiNS_9allocatorIiEEE21_ConstructTransactionC1B7v160006ERS3_m, symObjAddr: 0x5790, symBinAddr: 0x100007730, symSize: 0x30 }
  - { offsetInCU: 0x157ED, offset: 0x157ED, size: 0x8, addend: 0x0, symName: __ZNSt3__16vectorIiNS_9allocatorIiEEE21_ConstructTransactionD1B7v160006Ev, symObjAddr: 0x57F0, symBinAddr: 0x100007790, symSize: 0x20 }
  - { offsetInCU: 0x15817, offset: 0x15817, size: 0x8, addend: 0x0, symName: __ZNSt3__16vectorIiNS_9allocatorIiEEE21_ConstructTransactionC2B7v160006ERS3_m, symObjAddr: 0x5810, symBinAddr: 0x1000077B0, symSize: 0x40 }
  - { offsetInCU: 0x1585F, offset: 0x1585F, size: 0x8, addend: 0x0, symName: __ZNSt3__16vectorIiNS_9allocatorIiEEE21_ConstructTransactionD2B7v160006Ev, symObjAddr: 0x5850, symBinAddr: 0x1000077F0, symSize: 0x20 }
  - { offsetInCU: 0x15889, offset: 0x15889, size: 0x8, addend: 0x0, symName: __ZNSt3__16vectorIiNS_9allocatorIiEEE27__invalidate_iterators_pastB7v160006EPi, symObjAddr: 0x5870, symBinAddr: 0x100007810, symSize: 0x10 }
  - { offsetInCU: 0x158C0, offset: 0x158C0, size: 0x8, addend: 0x0, symName: __ZNKSt3__16vectorIiNS_9allocatorIiEEE17__annotate_shrinkB7v160006Em, symObjAddr: 0x5880, symBinAddr: 0x100007820, symSize: 0xA0 }
  - { offsetInCU: 0x158F5, offset: 0x158F5, size: 0x8, addend: 0x0, symName: __ZNSt3__16vectorIiNS_9allocatorIiEEE5clearB7v160006Ev, symObjAddr: 0x5920, symBinAddr: 0x1000078C0, symSize: 0x50 }
  - { offsetInCU: 0x1592A, offset: 0x1592A, size: 0x8, addend: 0x0, symName: __ZNSt3__16vectorIiNS_9allocatorIiEEE9__end_capB7v160006Ev, symObjAddr: 0x5970, symBinAddr: 0x100007910, symSize: 0x20 }
  - { offsetInCU: 0x15950, offset: 0x15950, size: 0x8, addend: 0x0, symName: __ZNSt3__117__compressed_pairIPiNS_9allocatorIiEEE5firstB7v160006Ev, symObjAddr: 0x5990, symBinAddr: 0x100007930, symSize: 0x20 }
  - { offsetInCU: 0x15976, offset: 0x15976, size: 0x8, addend: 0x0, symName: __ZNSt3__122__compressed_pair_elemIPiLi0ELb0EE5__getB7v160006Ev, symObjAddr: 0x59B0, symBinAddr: 0x100007950, symSize: 0x10 }
  - { offsetInCU: 0x1599C, offset: 0x1599C, size: 0x8, addend: 0x0, symName: __ZNKSt3__16vectorIiNS_9allocatorIiEEE8max_sizeEv, symObjAddr: 0x59C0, symBinAddr: 0x100007960, symSize: 0x60 }
  - { offsetInCU: 0x159C4, offset: 0x159C4, size: 0x8, addend: 0x0, symName: __ZNKSt3__16vectorIiNS_9allocatorIiEEE20__throw_length_errorB7v160006Ev, symObjAddr: 0x5A20, symBinAddr: 0x1000079C0, symSize: 0x20 }
  - { offsetInCU: 0x159EA, offset: 0x159EA, size: 0x8, addend: 0x0, symName: __ZNKSt3__16vectorIiNS_9allocatorIiEEE14__annotate_newB7v160006Em, symObjAddr: 0x5A80, symBinAddr: 0x100007A20, symSize: 0xB0 }
  - { offsetInCU: 0x15A29, offset: 0x15A29, size: 0x8, addend: 0x0, symName: __ZNSt3__116allocator_traitsINS_9allocatorIiEEE8max_sizeB7v160006IS2_vEEmRKS2_, symObjAddr: 0x5B30, symBinAddr: 0x100007AD0, symSize: 0x20 }
  - { offsetInCU: 0x15A57, offset: 0x15A57, size: 0x8, addend: 0x0, symName: __ZNKSt3__16vectorIiNS_9allocatorIiEEE7__allocB7v160006Ev, symObjAddr: 0x5B50, symBinAddr: 0x100007AF0, symSize: 0x20 }
  - { offsetInCU: 0x15A7D, offset: 0x15A7D, size: 0x8, addend: 0x0, symName: __ZNSt3__114numeric_limitsIlE3maxB7v160006Ev, symObjAddr: 0x5B70, symBinAddr: 0x100007B10, symSize: 0x10 }
  - { offsetInCU: 0x15A91, offset: 0x15A91, size: 0x8, addend: 0x0, symName: __ZNKSt3__19allocatorIiE8max_sizeB7v160006Ev, symObjAddr: 0x5B80, symBinAddr: 0x100007B20, symSize: 0x20 }
  - { offsetInCU: 0x15AB7, offset: 0x15AB7, size: 0x8, addend: 0x0, symName: __ZNKSt3__117__compressed_pairIPiNS_9allocatorIiEEE6secondB7v160006Ev, symObjAddr: 0x5BA0, symBinAddr: 0x100007B40, symSize: 0x20 }
  - { offsetInCU: 0x15ADD, offset: 0x15ADD, size: 0x8, addend: 0x0, symName: __ZNKSt3__122__compressed_pair_elemINS_9allocatorIiEELi1ELb1EE5__getB7v160006Ev, symObjAddr: 0x5BC0, symBinAddr: 0x100007B60, symSize: 0x10 }
  - { offsetInCU: 0x15B03, offset: 0x15B03, size: 0x8, addend: 0x0, symName: __ZNSt3__123__libcpp_numeric_limitsIlLb1EE3maxB7v160006Ev, symObjAddr: 0x5BD0, symBinAddr: 0x100007B70, symSize: 0x10 }
  - { offsetInCU: 0x15B17, offset: 0x15B17, size: 0x8, addend: 0x0, symName: __ZNSt12length_errorC1B7v160006EPKc, symObjAddr: 0x5C50, symBinAddr: 0x100007BF0, symSize: 0x30 }
  - { offsetInCU: 0x15B4F, offset: 0x15B4F, size: 0x8, addend: 0x0, symName: __ZNSt12length_errorC2B7v160006EPKc, symObjAddr: 0x5C80, symBinAddr: 0x100007C20, symSize: 0x40 }
  - { offsetInCU: 0x15B87, offset: 0x15B87, size: 0x8, addend: 0x0, symName: __ZNSt3__19allocatorIiE8allocateB7v160006Em, symObjAddr: 0x5CC0, symBinAddr: 0x100007C60, symSize: 0x50 }
  - { offsetInCU: 0x15BD1, offset: 0x15BD1, size: 0x8, addend: 0x0, symName: __ZNSt3__14pairIKNS_12basic_stringIcNS_11char_traitsIcEENS_9allocatorIcEEEEiEC1B7v160006IRA2_KciLPv0EEEOT_OT0_, symObjAddr: 0x5D90, symBinAddr: 0x100007D30, symSize: 0x30 }
  - { offsetInCU: 0x15C45, offset: 0x15C45, size: 0x8, addend: 0x0, symName: __ZNSt3__14pairIKNS_12basic_stringIcNS_11char_traitsIcEENS_9allocatorIcEEEEiEC1B7v160006IRA3_KciLPv0EEEOT_OT0_, symObjAddr: 0x5DC0, symBinAddr: 0x100007D60, symSize: 0x30 }
  - { offsetInCU: 0x15CA3, offset: 0x15CA3, size: 0x8, addend: 0x0, symName: __ZNSt3__14pairIKNS_12basic_stringIcNS_11char_traitsIcEENS_9allocatorIcEEEEiED1Ev, symObjAddr: 0x5DF0, symBinAddr: 0x100007D90, symSize: 0x20 }
  - { offsetInCU: 0x15CCF, offset: 0x15CCF, size: 0x8, addend: 0x0, symName: __ZNSt3__13mapINS_12basic_stringIcNS_11char_traitsIcEENS_9allocatorIcEEEEiNS_4lessIS6_EENS4_INS_4pairIKS6_iEEEEEaSB7v160006ESt16initializer_listISB_E, symObjAddr: 0x5E10, symBinAddr: 0x100007DB0, symSize: 0x50 }
  - { offsetInCU: 0x15D04, offset: 0x15D04, size: 0x8, addend: 0x0, symName: __ZNSt3__14pairIKNS_12basic_stringIcNS_11char_traitsIcEENS_9allocatorIcEEEEiEC2B7v160006IRA2_KciLPv0EEEOT_OT0_, symObjAddr: 0x5E60, symBinAddr: 0x100007E00, symSize: 0x40 }
  - { offsetInCU: 0x15D62, offset: 0x15D62, size: 0x8, addend: 0x0, symName: __ZNSt3__14pairIKNS_12basic_stringIcNS_11char_traitsIcEENS_9allocatorIcEEEEiEC2B7v160006IRA3_KciLPv0EEEOT_OT0_, symObjAddr: 0x5EA0, symBinAddr: 0x100007E40, symSize: 0x40 }
  - { offsetInCU: 0x15DC0, offset: 0x15DC0, size: 0x8, addend: 0x0, symName: __ZNSt3__14pairIKNS_12basic_stringIcNS_11char_traitsIcEENS_9allocatorIcEEEEiED2Ev, symObjAddr: 0x5EE0, symBinAddr: 0x100007E80, symSize: 0x20 }
  - { offsetInCU: 0x15DEC, offset: 0x15DEC, size: 0x8, addend: 0x0, symName: __ZNSt3__16__treeINS_12__value_typeINS_12basic_stringIcNS_11char_traitsIcEENS_9allocatorIcEEEEiEENS_19__map_value_compareIS7_S8_NS_4lessIS7_EELb1EEENS5_IS8_EEE15__assign_uniqueIPKNS_4pairIKS7_iEEEEvT_SL_, symObjAddr: 0x5F00, symBinAddr: 0x100007EA0, symSize: 0x150 }
  - { offsetInCU: 0x15E50, offset: 0x15E50, size: 0x8, addend: 0x0, symName: __ZNKSt16initializer_listINSt3__14pairIKNS0_12basic_stringIcNS0_11char_traitsIcEENS0_9allocatorIcEEEEiEEE5beginB7v160006Ev, symObjAddr: 0x6050, symBinAddr: 0x100007FF0, symSize: 0x20 }
  - { offsetInCU: 0x15E76, offset: 0x15E76, size: 0x8, addend: 0x0, symName: __ZNKSt16initializer_listINSt3__14pairIKNS0_12basic_stringIcNS0_11char_traitsIcEENS0_9allocatorIcEEEEiEEE3endB7v160006Ev, symObjAddr: 0x6070, symBinAddr: 0x100008010, symSize: 0x20 }
  - { offsetInCU: 0x15E9C, offset: 0x15E9C, size: 0x8, addend: 0x0, symName: __ZNSt3__16__treeINS_12__value_typeINS_12basic_stringIcNS_11char_traitsIcEENS_9allocatorIcEEEEiEENS_19__map_value_compareIS7_S8_NS_4lessIS7_EELb1EEENS5_IS8_EEE4sizeB7v160006Ev, symObjAddr: 0x6090, symBinAddr: 0x100008030, symSize: 0x20 }
  - { offsetInCU: 0x15EE0, offset: 0x15EE0, size: 0x8, addend: 0x0, symName: __ZNSt3__16__treeINS_12__value_typeINS_12basic_stringIcNS_11char_traitsIcEENS_9allocatorIcEEEEiEENS_19__map_value_compareIS7_S8_NS_4lessIS7_EELb1EEENS5_IS8_EEE18_DetachedTreeCacheC1B7v160006EPSE_, symObjAddr: 0x60B0, symBinAddr: 0x100008050, symSize: 0x30 }
  - { offsetInCU: 0x15F19, offset: 0x15F19, size: 0x8, addend: 0x0, symName: __ZNKSt3__16__treeINS_12__value_typeINS_12basic_stringIcNS_11char_traitsIcEENS_9allocatorIcEEEEiEENS_19__map_value_compareIS7_S8_NS_4lessIS7_EELb1EEENS5_IS8_EEE18_DetachedTreeCache5__getB7v160006Ev, symObjAddr: 0x60E0, symBinAddr: 0x100008080, symSize: 0x20 }
  - { offsetInCU: 0x15F3F, offset: 0x15F3F, size: 0x8, addend: 0x0, symName: __ZNSt3__16__treeINS_12__value_typeINS_12basic_stringIcNS_11char_traitsIcEENS_9allocatorIcEEEEiEENS_19__map_value_compareIS7_S8_NS_4lessIS7_EELb1EEENS5_IS8_EEE20__node_assign_uniqueERKNS_4pairIKS7_iEEPNS_11__tree_nodeIS8_PvEE, symObjAddr: 0x6100, symBinAddr: 0x1000080A0, symSize: 0xC0 }
  - { offsetInCU: 0x15FC2, offset: 0x15FC2, size: 0x8, addend: 0x0, symName: __ZNSt3__16__treeINS_12__value_typeINS_12basic_stringIcNS_11char_traitsIcEENS_9allocatorIcEEEEiEENS_19__map_value_compareIS7_S8_NS_4lessIS7_EELb1EEENS5_IS8_EEE18_DetachedTreeCache9__advanceB7v160006Ev, symObjAddr: 0x61C0, symBinAddr: 0x100008160, symSize: 0x50 }
  - { offsetInCU: 0x15FE8, offset: 0x15FE8, size: 0x8, addend: 0x0, symName: __ZNSt3__16__treeINS_12__value_typeINS_12basic_stringIcNS_11char_traitsIcEENS_9allocatorIcEEEEiEENS_19__map_value_compareIS7_S8_NS_4lessIS7_EELb1EEENS5_IS8_EEE18_DetachedTreeCacheD1B7v160006Ev, symObjAddr: 0x6210, symBinAddr: 0x1000081B0, symSize: 0x20 }
  - { offsetInCU: 0x16012, offset: 0x16012, size: 0x8, addend: 0x0, symName: __ZNSt3__16__treeINS_12__value_typeINS_12basic_stringIcNS_11char_traitsIcEENS_9allocatorIcEEEEiEENS_19__map_value_compareIS7_S8_NS_4lessIS7_EELb1EEENS5_IS8_EEE15__insert_uniqueB7v160006ERKNS_4pairIKS7_iEE, symObjAddr: 0x6230, symBinAddr: 0x1000081D0, symSize: 0x50 }
  - { offsetInCU: 0x16047, offset: 0x16047, size: 0x8, addend: 0x0, symName: __ZNSt3__117__compressed_pairImNS_19__map_value_compareINS_12basic_stringIcNS_11char_traitsIcEENS_9allocatorIcEEEENS_12__value_typeIS7_iEENS_4lessIS7_EELb1EEEE5firstB7v160006Ev, symObjAddr: 0x6280, symBinAddr: 0x100008220, symSize: 0x20 }
  - { offsetInCU: 0x1606D, offset: 0x1606D, size: 0x8, addend: 0x0, symName: __ZNSt3__16__treeINS_12__value_typeINS_12basic_stringIcNS_11char_traitsIcEENS_9allocatorIcEEEEiEENS_19__map_value_compareIS7_S8_NS_4lessIS7_EELb1EEENS5_IS8_EEE18_DetachedTreeCacheC2B7v160006EPSE_, symObjAddr: 0x62A0, symBinAddr: 0x100008240, symSize: 0x40 }
  - { offsetInCU: 0x160A6, offset: 0x160A6, size: 0x8, addend: 0x0, symName: __ZNSt3__16__treeINS_12__value_typeINS_12basic_stringIcNS_11char_traitsIcEENS_9allocatorIcEEEEiEENS_19__map_value_compareIS7_S8_NS_4lessIS7_EELb1EEENS5_IS8_EEE18_DetachedTreeCache18__detach_from_treeEPSE_, symObjAddr: 0x62E0, symBinAddr: 0x100008280, symSize: 0xA0 }
  - { offsetInCU: 0x160DB, offset: 0x160DB, size: 0x8, addend: 0x0, symName: __ZNSt3__16__treeINS_12__value_typeINS_12basic_stringIcNS_11char_traitsIcEENS_9allocatorIcEEEEiEENS_19__map_value_compareIS7_S8_NS_4lessIS7_EELb1EEENS5_IS8_EEE12__begin_nodeB7v160006Ev, symObjAddr: 0x6380, symBinAddr: 0x100008320, symSize: 0x10 }
  - { offsetInCU: 0x16101, offset: 0x16101, size: 0x8, addend: 0x0, symName: __ZNSt3__16__treeINS_12__value_typeINS_12basic_stringIcNS_11char_traitsIcEENS_9allocatorIcEEEEiEENS_19__map_value_compareIS7_S8_NS_4lessIS7_EELb1EEENS5_IS8_EEE10__end_nodeB7v160006Ev, symObjAddr: 0x6390, symBinAddr: 0x100008330, symSize: 0x30 }
  - { offsetInCU: 0x16127, offset: 0x16127, size: 0x8, addend: 0x0, symName: __ZNSt3__117__compressed_pairINS_15__tree_end_nodeIPNS_16__tree_node_baseIPvEEEENS_9allocatorINS_11__tree_nodeINS_12__value_typeINS_12basic_stringIcNS_11char_traitsIcEENS7_IcEEEEiEES3_EEEEE5firstB7v160006Ev, symObjAddr: 0x63C0, symBinAddr: 0x100008360, symSize: 0x20 }
  - { offsetInCU: 0x1614D, offset: 0x1614D, size: 0x8, addend: 0x0, symName: __ZNSt3__16__treeINS_12__value_typeINS_12basic_stringIcNS_11char_traitsIcEENS_9allocatorIcEEEEiEENS_19__map_value_compareIS7_S8_NS_4lessIS7_EELb1EEENS5_IS8_EEE12__find_equalIS7_EERPNS_16__tree_node_baseIPvEERPNS_15__tree_end_nodeISJ_EERKT_, symObjAddr: 0x63E0, symBinAddr: 0x100008380, symSize: 0x180 }
  - { offsetInCU: 0x161BA, offset: 0x161BA, size: 0x8, addend: 0x0, symName: __ZNSt3__122__tree_key_value_typesINS_12__value_typeINS_12basic_stringIcNS_11char_traitsIcEENS_9allocatorIcEEEEiEEE9__get_keyB7v160006IKNS_4pairIKS7_iEEEENS_9enable_ifIXsr17__is_same_uncvrefIT_SD_EE5valueERSC_E4typeERSG_, symObjAddr: 0x6560, symBinAddr: 0x100008500, symSize: 0x10 }
  - { offsetInCU: 0x161E7, offset: 0x161E7, size: 0x8, addend: 0x0, symName: __ZNSt3__112__value_typeINS_12basic_stringIcNS_11char_traitsIcEENS_9allocatorIcEEEEiEaSB7v160006IRKNS_4pairIKS6_iEEvEERS7_OT_, symObjAddr: 0x6570, symBinAddr: 0x100008510, symSize: 0x50 }
  - { offsetInCU: 0x16226, offset: 0x16226, size: 0x8, addend: 0x0, symName: __ZNSt3__16__treeINS_12__value_typeINS_12basic_stringIcNS_11char_traitsIcEENS_9allocatorIcEEEEiEENS_19__map_value_compareIS7_S8_NS_4lessIS7_EELb1EEENS5_IS8_EEE16__insert_node_atEPNS_15__tree_end_nodeIPNS_16__tree_node_baseIPvEEEERSJ_SJ_, symObjAddr: 0x65C0, symBinAddr: 0x100008560, symSize: 0xC0 }
  - { offsetInCU: 0x1627B, offset: 0x1627B, size: 0x8, addend: 0x0, symName: __ZNSt3__115__tree_iteratorINS_12__value_typeINS_12basic_stringIcNS_11char_traitsIcEENS_9allocatorIcEEEEiEEPNS_11__tree_nodeIS8_PvEElEC1B7v160006ESC_, symObjAddr: 0x6680, symBinAddr: 0x100008620, symSize: 0x30 }
  - { offsetInCU: 0x162B9, offset: 0x162B9, size: 0x8, addend: 0x0, symName: __ZNSt3__14pairINS_15__tree_iteratorINS_12__value_typeINS_12basic_stringIcNS_11char_traitsIcEENS_9allocatorIcEEEEiEEPNS_11__tree_nodeIS9_PvEElEEbEC1B7v160006ISE_RbLSB_0EEEOT_OT0_, symObjAddr: 0x66B0, symBinAddr: 0x100008650, symSize: 0x30 }
  - { offsetInCU: 0x16317, offset: 0x16317, size: 0x8, addend: 0x0, symName: __ZNKSt3__16__treeINS_12__value_typeINS_12basic_stringIcNS_11char_traitsIcEENS_9allocatorIcEEEEiEENS_19__map_value_compareIS7_S8_NS_4lessIS7_EELb1EEENS5_IS8_EEE6__rootB7v160006Ev, symObjAddr: 0x66E0, symBinAddr: 0x100008680, symSize: 0x20 }
  - { offsetInCU: 0x1633D, offset: 0x1633D, size: 0x8, addend: 0x0, symName: __ZNKSt3__16__treeINS_12__value_typeINS_12basic_stringIcNS_11char_traitsIcEENS_9allocatorIcEEEEiEENS_19__map_value_compareIS7_S8_NS_4lessIS7_EELb1EEENS5_IS8_EEE10__root_ptrEv, symObjAddr: 0x6700, symBinAddr: 0x1000086A0, symSize: 0x20 }
  - { offsetInCU: 0x16363, offset: 0x16363, size: 0x8, addend: 0x0, symName: __ZNSt3__16__treeINS_12__value_typeINS_12basic_stringIcNS_11char_traitsIcEENS_9allocatorIcEEEEiEENS_19__map_value_compareIS7_S8_NS_4lessIS7_EELb1EEENS5_IS8_EEE10value_compB7v160006Ev, symObjAddr: 0x6720, symBinAddr: 0x1000086C0, symSize: 0x20 }
  - { offsetInCU: 0x16389, offset: 0x16389, size: 0x8, addend: 0x0, symName: __ZNKSt3__119__map_value_compareINS_12basic_stringIcNS_11char_traitsIcEENS_9allocatorIcEEEENS_12__value_typeIS6_iEENS_4lessIS6_EELb1EEclB7v160006ERKS6_RKS8_, symObjAddr: 0x6740, symBinAddr: 0x1000086E0, symSize: 0x50 }
  - { offsetInCU: 0x163CD, offset: 0x163CD, size: 0x8, addend: 0x0, symName: __ZNKSt3__119__map_value_compareINS_12basic_stringIcNS_11char_traitsIcEENS_9allocatorIcEEEENS_12__value_typeIS6_iEENS_4lessIS6_EELb1EEclB7v160006ERKS8_RKS6_, symObjAddr: 0x6790, symBinAddr: 0x100008730, symSize: 0x40 }
  - { offsetInCU: 0x16411, offset: 0x16411, size: 0x8, addend: 0x0, symName: __ZNKSt3__16__treeINS_12__value_typeINS_12basic_stringIcNS_11char_traitsIcEENS_9allocatorIcEEEEiEENS_19__map_value_compareIS7_S8_NS_4lessIS7_EELb1EEENS5_IS8_EEE10__end_nodeB7v160006Ev, symObjAddr: 0x67D0, symBinAddr: 0x100008770, symSize: 0x30 }
  - { offsetInCU: 0x16437, offset: 0x16437, size: 0x8, addend: 0x0, symName: __ZNKSt3__117__compressed_pairINS_15__tree_end_nodeIPNS_16__tree_node_baseIPvEEEENS_9allocatorINS_11__tree_nodeINS_12__value_typeINS_12basic_stringIcNS_11char_traitsIcEENS7_IcEEEEiEES3_EEEEE5firstB7v160006Ev, symObjAddr: 0x6800, symBinAddr: 0x1000087A0, symSize: 0x20 }
  - { offsetInCU: 0x1645D, offset: 0x1645D, size: 0x8, addend: 0x0, symName: __ZNSt3__117__compressed_pairImNS_19__map_value_compareINS_12basic_stringIcNS_11char_traitsIcEENS_9allocatorIcEEEENS_12__value_typeIS7_iEENS_4lessIS7_EELb1EEEE6secondB7v160006Ev, symObjAddr: 0x6820, symBinAddr: 0x1000087C0, symSize: 0x20 }
  - { offsetInCU: 0x16483, offset: 0x16483, size: 0x8, addend: 0x0, symName: __ZNSt3__122__compressed_pair_elemINS_19__map_value_compareINS_12basic_stringIcNS_11char_traitsIcEENS_9allocatorIcEEEENS_12__value_typeIS7_iEENS_4lessIS7_EELb1EEELi1ELb1EE5__getB7v160006Ev, symObjAddr: 0x6840, symBinAddr: 0x1000087E0, symSize: 0x10 }
  - { offsetInCU: 0x164A9, offset: 0x164A9, size: 0x8, addend: 0x0, symName: __ZNKSt3__112__value_typeINS_12basic_stringIcNS_11char_traitsIcEENS_9allocatorIcEEEEiE11__get_valueB7v160006Ev, symObjAddr: 0x6850, symBinAddr: 0x1000087F0, symSize: 0x20 }
  - { offsetInCU: 0x164CF, offset: 0x164CF, size: 0x8, addend: 0x0, symName: __ZNSt3__112__value_typeINS_12basic_stringIcNS_11char_traitsIcEENS_9allocatorIcEEEEiE5__refB7v160006Ev, symObjAddr: 0x68A0, symBinAddr: 0x100008840, symSize: 0x40 }
  - { offsetInCU: 0x16504, offset: 0x16504, size: 0x8, addend: 0x0, symName: __ZNSt3__14pairIRNS_12basic_stringIcNS_11char_traitsIcEENS_9allocatorIcEEEERiEaSB7v160006IRKNS0_IKS6_iEELPv0EEERS9_OT_, symObjAddr: 0x68E0, symBinAddr: 0x100008880, symSize: 0x50 }
  - { offsetInCU: 0x16548, offset: 0x16548, size: 0x8, addend: 0x0, symName: __ZNSt3__112__value_typeINS_12basic_stringIcNS_11char_traitsIcEENS_9allocatorIcEEEEiE11__get_valueB7v160006Ev, symObjAddr: 0x6930, symBinAddr: 0x1000088D0, symSize: 0x20 }
  - { offsetInCU: 0x1656E, offset: 0x1656E, size: 0x8, addend: 0x0, symName: __ZNSt3__14pairIRNS_12basic_stringIcNS_11char_traitsIcEENS_9allocatorIcEEEERiEC1B7v160006ILb1ELPv0EEES7_S8_, symObjAddr: 0x6950, symBinAddr: 0x1000088F0, symSize: 0x30 }
  - { offsetInCU: 0x165C4, offset: 0x165C4, size: 0x8, addend: 0x0, symName: __ZNSt3__14pairIRNS_12basic_stringIcNS_11char_traitsIcEENS_9allocatorIcEEEERiEC2B7v160006ILb1ELPv0EEES7_S8_, symObjAddr: 0x69B0, symBinAddr: 0x100008950, symSize: 0x30 }
  - { offsetInCU: 0x1661A, offset: 0x1661A, size: 0x8, addend: 0x0, symName: __ZNSt3__110__get_pairILm0EE3getB7v160006IKNS_12basic_stringIcNS_11char_traitsIcEENS_9allocatorIcEEEEiEERKT_RKNS_4pairISA_T0_EE, symObjAddr: 0x6A20, symBinAddr: 0x1000089C0, symSize: 0x10 }
  - { offsetInCU: 0x16650, offset: 0x16650, size: 0x8, addend: 0x0, symName: __ZNSt3__110__get_pairILm1EE3getB7v160006IKNS_12basic_stringIcNS_11char_traitsIcEENS_9allocatorIcEEEEiEERKT0_RKNS_4pairIT_SA_EE, symObjAddr: 0x6A30, symBinAddr: 0x1000089D0, symSize: 0x20 }
  - { offsetInCU: 0x16686, offset: 0x16686, size: 0x8, addend: 0x0, symName: __ZNSt3__115__tree_iteratorINS_12__value_typeINS_12basic_stringIcNS_11char_traitsIcEENS_9allocatorIcEEEEiEEPNS_11__tree_nodeIS8_PvEElEC2B7v160006ESC_, symObjAddr: 0x6A50, symBinAddr: 0x1000089F0, symSize: 0x20 }
  - { offsetInCU: 0x166BF, offset: 0x166BF, size: 0x8, addend: 0x0, symName: __ZNSt3__14pairINS_15__tree_iteratorINS_12__value_typeINS_12basic_stringIcNS_11char_traitsIcEENS_9allocatorIcEEEEiEEPNS_11__tree_nodeIS9_PvEElEEbEC2B7v160006ISE_RbLSB_0EEEOT_OT0_, symObjAddr: 0x6A70, symBinAddr: 0x100008A10, symSize: 0x30 }
  - { offsetInCU: 0x1671D, offset: 0x1671D, size: 0x8, addend: 0x0, symName: __ZNSt3__16__treeINS_12__value_typeINS_12basic_stringIcNS_11char_traitsIcEENS_9allocatorIcEEEEiEENS_19__map_value_compareIS7_S8_NS_4lessIS7_EELb1EEENS5_IS8_EEE18_DetachedTreeCache13__detach_nextEPNS_11__tree_nodeIS8_PvEE, symObjAddr: 0x6AA0, symBinAddr: 0x100008A40, symSize: 0xE0 }
  - { offsetInCU: 0x16743, offset: 0x16743, size: 0x8, addend: 0x0, symName: __ZNSt3__16__treeINS_12__value_typeINS_12basic_stringIcNS_11char_traitsIcEENS_9allocatorIcEEEEiEENS_19__map_value_compareIS7_S8_NS_4lessIS7_EELb1EEENS5_IS8_EEE18_DetachedTreeCacheD2B7v160006Ev, symObjAddr: 0x6BE0, symBinAddr: 0x100008B80, symSize: 0x80 }
  - { offsetInCU: 0x1676D, offset: 0x1676D, size: 0x8, addend: 0x0, symName: __ZNSt3__16__treeINS_12__value_typeINS_12basic_stringIcNS_11char_traitsIcEENS_9allocatorIcEEEEiEENS_19__map_value_compareIS7_S8_NS_4lessIS7_EELb1EEENS5_IS8_EEE7destroyEPNS_11__tree_nodeIS8_PvEE, symObjAddr: 0x6C60, symBinAddr: 0x100008C00, symSize: 0xB0 }
  - { offsetInCU: 0x167B9, offset: 0x167B9, size: 0x8, addend: 0x0, symName: __ZNSt3__16__treeINS_12__value_typeINS_12basic_stringIcNS_11char_traitsIcEENS_9allocatorIcEEEEiEENS_19__map_value_compareIS7_S8_NS_4lessIS7_EELb1EEENS5_IS8_EEE12__node_allocB7v160006Ev, symObjAddr: 0x6D10, symBinAddr: 0x100008CB0, symSize: 0x20 }
  - { offsetInCU: 0x167DF, offset: 0x167DF, size: 0x8, addend: 0x0, symName: __ZNSt3__116allocator_traitsINS_9allocatorINS_11__tree_nodeINS_12__value_typeINS_12basic_stringIcNS_11char_traitsIcEENS1_IcEEEEiEEPvEEEEE7destroyB7v160006INS_4pairIKS8_iEEvvEEvRSC_PT_, symObjAddr: 0x6D30, symBinAddr: 0x100008CD0, symSize: 0x20 }
  - { offsetInCU: 0x16819, offset: 0x16819, size: 0x8, addend: 0x0, symName: __ZNSt3__122__tree_key_value_typesINS_12__value_typeINS_12basic_stringIcNS_11char_traitsIcEENS_9allocatorIcEEEEiEEE9__get_ptrB7v160006ERS8_, symObjAddr: 0x6D50, symBinAddr: 0x100008CF0, symSize: 0x20 }
  - { offsetInCU: 0x1683D, offset: 0x1683D, size: 0x8, addend: 0x0, symName: __ZNSt3__116allocator_traitsINS_9allocatorINS_11__tree_nodeINS_12__value_typeINS_12basic_stringIcNS_11char_traitsIcEENS1_IcEEEEiEEPvEEEEE10deallocateB7v160006ERSC_PSB_m, symObjAddr: 0x6D70, symBinAddr: 0x100008D10, symSize: 0x30 }
  - { offsetInCU: 0x1687F, offset: 0x1687F, size: 0x8, addend: 0x0, symName: __ZNSt3__117__compressed_pairINS_15__tree_end_nodeIPNS_16__tree_node_baseIPvEEEENS_9allocatorINS_11__tree_nodeINS_12__value_typeINS_12basic_stringIcNS_11char_traitsIcEENS7_IcEEEEiEES3_EEEEE6secondB7v160006Ev, symObjAddr: 0x6DA0, symBinAddr: 0x100008D40, symSize: 0x20 }
  - { offsetInCU: 0x168A5, offset: 0x168A5, size: 0x8, addend: 0x0, symName: __ZNSt3__122__compressed_pair_elemINS_9allocatorINS_11__tree_nodeINS_12__value_typeINS_12basic_stringIcNS_11char_traitsIcEENS1_IcEEEEiEEPvEEEELi1ELb1EE5__getB7v160006Ev, symObjAddr: 0x6DC0, symBinAddr: 0x100008D60, symSize: 0x10 }
  - { offsetInCU: 0x168CB, offset: 0x168CB, size: 0x8, addend: 0x0, symName: __ZNSt3__19allocatorINS_11__tree_nodeINS_12__value_typeINS_12basic_stringIcNS_11char_traitsIcEENS0_IcEEEEiEEPvEEE10deallocateB7v160006EPSA_m, symObjAddr: 0x6DD0, symBinAddr: 0x100008D70, symSize: 0x40 }
  - { offsetInCU: 0x1690D, offset: 0x1690D, size: 0x8, addend: 0x0, symName: __ZNSt3__16__treeINS_12__value_typeINS_12basic_stringIcNS_11char_traitsIcEENS_9allocatorIcEEEEiEENS_19__map_value_compareIS7_S8_NS_4lessIS7_EELb1EEENS5_IS8_EEE25__emplace_unique_key_argsIS7_JRKNS_4pairIKS7_iEEEEENSG_INS_15__tree_iteratorIS8_PNS_11__tree_nodeIS8_PvEElEEbEERKT_DpOT0_, symObjAddr: 0x6E10, symBinAddr: 0x100008DB0, symSize: 0xE0 }
  - { offsetInCU: 0x169C2, offset: 0x169C2, size: 0x8, addend: 0x0, symName: __ZNSt3__16__treeINS_12__value_typeINS_12basic_stringIcNS_11char_traitsIcEENS_9allocatorIcEEEEiEENS_19__map_value_compareIS7_S8_NS_4lessIS7_EELb1EEENS5_IS8_EEE16__construct_nodeIJRKNS_4pairIKS7_iEEEEENS_10unique_ptrINS_11__tree_nodeIS8_PvEENS_22__tree_node_destructorINS5_ISO_EEEEEEDpOT_, symObjAddr: 0x6EF0, symBinAddr: 0x100008E90, symSize: 0xF0 }
  - { offsetInCU: 0x16A23, offset: 0x16A23, size: 0x8, addend: 0x0, symName: __ZNKSt3__110unique_ptrINS_11__tree_nodeINS_12__value_typeINS_12basic_stringIcNS_11char_traitsIcEENS_9allocatorIcEEEEiEEPvEENS_22__tree_node_destructorINS6_ISB_EEEEE3getB7v160006Ev, symObjAddr: 0x6FE0, symBinAddr: 0x100008F80, symSize: 0x20 }
  - { offsetInCU: 0x16A49, offset: 0x16A49, size: 0x8, addend: 0x0, symName: __ZNSt3__110unique_ptrINS_11__tree_nodeINS_12__value_typeINS_12basic_stringIcNS_11char_traitsIcEENS_9allocatorIcEEEEiEEPvEENS_22__tree_node_destructorINS6_ISB_EEEEE7releaseB7v160006Ev, symObjAddr: 0x7000, symBinAddr: 0x100008FA0, symSize: 0x40 }
  - { offsetInCU: 0x16A7E, offset: 0x16A7E, size: 0x8, addend: 0x0, symName: __ZNSt3__110unique_ptrINS_11__tree_nodeINS_12__value_typeINS_12basic_stringIcNS_11char_traitsIcEENS_9allocatorIcEEEEiEEPvEENS_22__tree_node_destructorINS6_ISB_EEEEED1B7v160006Ev, symObjAddr: 0x7040, symBinAddr: 0x100008FE0, symSize: 0x20 }
  - { offsetInCU: 0x16AA8, offset: 0x16AA8, size: 0x8, addend: 0x0, symName: __ZNSt3__116allocator_traitsINS_9allocatorINS_11__tree_nodeINS_12__value_typeINS_12basic_stringIcNS_11char_traitsIcEENS1_IcEEEEiEEPvEEEEE8allocateB7v160006ERSC_m, symObjAddr: 0x7060, symBinAddr: 0x100009000, symSize: 0x30 }
  - { offsetInCU: 0x16ADB, offset: 0x16ADB, size: 0x8, addend: 0x0, symName: __ZNSt3__122__tree_node_destructorINS_9allocatorINS_11__tree_nodeINS_12__value_typeINS_12basic_stringIcNS_11char_traitsIcEENS1_IcEEEEiEEPvEEEEEC1B7v160006ERSC_b, symObjAddr: 0x7090, symBinAddr: 0x100009030, symSize: 0x40 }
  - { offsetInCU: 0x16B28, offset: 0x16B28, size: 0x8, addend: 0x0, symName: __ZNSt3__110unique_ptrINS_11__tree_nodeINS_12__value_typeINS_12basic_stringIcNS_11char_traitsIcEENS_9allocatorIcEEEEiEEPvEENS_22__tree_node_destructorINS6_ISB_EEEEEC1B7v160006ILb1EvEEPSB_NS_16__dependent_typeINS_27__unique_ptr_deleter_sfinaeISE_EEXT_EE20__good_rval_ref_typeE, symObjAddr: 0x70D0, symBinAddr: 0x100009070, symSize: 0x30 }
  - { offsetInCU: 0x16B79, offset: 0x16B79, size: 0x8, addend: 0x0, symName: __ZNSt3__116allocator_traitsINS_9allocatorINS_11__tree_nodeINS_12__value_typeINS_12basic_stringIcNS_11char_traitsIcEENS1_IcEEEEiEEPvEEEEE9constructB7v160006INS_4pairIKS8_iEEJRKSH_EvEEvRSC_PT_DpOT0_, symObjAddr: 0x7100, symBinAddr: 0x1000090A0, symSize: 0x30 }
  - { offsetInCU: 0x16BD0, offset: 0x16BD0, size: 0x8, addend: 0x0, symName: __ZNKSt3__110unique_ptrINS_11__tree_nodeINS_12__value_typeINS_12basic_stringIcNS_11char_traitsIcEENS_9allocatorIcEEEEiEEPvEENS_22__tree_node_destructorINS6_ISB_EEEEEptB7v160006Ev, symObjAddr: 0x7130, symBinAddr: 0x1000090D0, symSize: 0x20 }
  - { offsetInCU: 0x16BF6, offset: 0x16BF6, size: 0x8, addend: 0x0, symName: __ZNSt3__110unique_ptrINS_11__tree_nodeINS_12__value_typeINS_12basic_stringIcNS_11char_traitsIcEENS_9allocatorIcEEEEiEEPvEENS_22__tree_node_destructorINS6_ISB_EEEEE11get_deleterB7v160006Ev, symObjAddr: 0x7150, symBinAddr: 0x1000090F0, symSize: 0x20 }
  - { offsetInCU: 0x16C1C, offset: 0x16C1C, size: 0x8, addend: 0x0, symName: __ZNSt3__19allocatorINS_11__tree_nodeINS_12__value_typeINS_12basic_stringIcNS_11char_traitsIcEENS0_IcEEEEiEEPvEEE8allocateB7v160006Em, symObjAddr: 0x7170, symBinAddr: 0x100009110, symSize: 0x50 }
  - { offsetInCU: 0x16C5A, offset: 0x16C5A, size: 0x8, addend: 0x0, symName: __ZNSt3__116allocator_traitsINS_9allocatorINS_11__tree_nodeINS_12__value_typeINS_12basic_stringIcNS_11char_traitsIcEENS1_IcEEEEiEEPvEEEEE8max_sizeB7v160006ISC_vEEmRKSC_, symObjAddr: 0x71C0, symBinAddr: 0x100009160, symSize: 0x20 }
  - { offsetInCU: 0x16C88, offset: 0x16C88, size: 0x8, addend: 0x0, symName: __ZNKSt3__19allocatorINS_11__tree_nodeINS_12__value_typeINS_12basic_stringIcNS_11char_traitsIcEENS0_IcEEEEiEEPvEEE8max_sizeB7v160006Ev, symObjAddr: 0x71E0, symBinAddr: 0x100009180, symSize: 0x20 }
  - { offsetInCU: 0x16CAE, offset: 0x16CAE, size: 0x8, addend: 0x0, symName: __ZNSt3__122__tree_node_destructorINS_9allocatorINS_11__tree_nodeINS_12__value_typeINS_12basic_stringIcNS_11char_traitsIcEENS1_IcEEEEiEEPvEEEEEC2B7v160006ERSC_b, symObjAddr: 0x7200, symBinAddr: 0x1000091A0, symSize: 0x30 }
  - { offsetInCU: 0x16CF6, offset: 0x16CF6, size: 0x8, addend: 0x0, symName: __ZNSt3__110unique_ptrINS_11__tree_nodeINS_12__value_typeINS_12basic_stringIcNS_11char_traitsIcEENS_9allocatorIcEEEEiEEPvEENS_22__tree_node_destructorINS6_ISB_EEEEEC2B7v160006ILb1EvEEPSB_NS_16__dependent_typeINS_27__unique_ptr_deleter_sfinaeISE_EEXT_EE20__good_rval_ref_typeE, symObjAddr: 0x7230, symBinAddr: 0x1000091D0, symSize: 0x40 }
  - { offsetInCU: 0x16D47, offset: 0x16D47, size: 0x8, addend: 0x0, symName: __ZNSt3__117__compressed_pairIPNS_11__tree_nodeINS_12__value_typeINS_12basic_stringIcNS_11char_traitsIcEENS_9allocatorIcEEEEiEEPvEENS_22__tree_node_destructorINS6_ISB_EEEEEC1B7v160006IRSC_SF_EEOT_OT0_, symObjAddr: 0x7270, symBinAddr: 0x100009210, symSize: 0x30 }
  - { offsetInCU: 0x16D9F, offset: 0x16D9F, size: 0x8, addend: 0x0, symName: __ZNSt3__117__compressed_pairIPNS_11__tree_nodeINS_12__value_typeINS_12basic_stringIcNS_11char_traitsIcEENS_9allocatorIcEEEEiEEPvEENS_22__tree_node_destructorINS6_ISB_EEEEEC2B7v160006IRSC_SF_EEOT_OT0_, symObjAddr: 0x72A0, symBinAddr: 0x100009240, symSize: 0x40 }
  - { offsetInCU: 0x16DF7, offset: 0x16DF7, size: 0x8, addend: 0x0, symName: __ZNSt3__122__compressed_pair_elemIPNS_11__tree_nodeINS_12__value_typeINS_12basic_stringIcNS_11char_traitsIcEENS_9allocatorIcEEEEiEEPvEELi0ELb0EEC2B7v160006IRSC_vEEOT_, symObjAddr: 0x72E0, symBinAddr: 0x100009280, symSize: 0x20 }
  - { offsetInCU: 0x16E39, offset: 0x16E39, size: 0x8, addend: 0x0, symName: __ZNSt3__122__compressed_pair_elemINS_22__tree_node_destructorINS_9allocatorINS_11__tree_nodeINS_12__value_typeINS_12basic_stringIcNS_11char_traitsIcEENS2_IcEEEEiEEPvEEEEEELi1ELb0EEC2B7v160006ISE_vEEOT_, symObjAddr: 0x7300, symBinAddr: 0x1000092A0, symSize: 0x30 }
  - { offsetInCU: 0x16E7B, offset: 0x16E7B, size: 0x8, addend: 0x0, symName: __ZNSt3__19allocatorINS_11__tree_nodeINS_12__value_typeINS_12basic_stringIcNS_11char_traitsIcEENS0_IcEEEEiEEPvEEE9constructB7v160006INS_4pairIKS7_iEEJRKSF_EEEvPT_DpOT0_, symObjAddr: 0x7330, symBinAddr: 0x1000092D0, symSize: 0x30 }
  - { offsetInCU: 0x16ED1, offset: 0x16ED1, size: 0x8, addend: 0x0, symName: __ZNSt3__14pairIKNS_12basic_stringIcNS_11char_traitsIcEENS_9allocatorIcEEEEiEC1ERKS8_, symObjAddr: 0x7360, symBinAddr: 0x100009300, symSize: 0x30 }
  - { offsetInCU: 0x16F05, offset: 0x16F05, size: 0x8, addend: 0x0, symName: __ZNSt3__14pairIKNS_12basic_stringIcNS_11char_traitsIcEENS_9allocatorIcEEEEiEC2ERKS8_, symObjAddr: 0x7390, symBinAddr: 0x100009330, symSize: 0x40 }
  - { offsetInCU: 0x16F39, offset: 0x16F39, size: 0x8, addend: 0x0, symName: __ZNKSt3__117__compressed_pairIPNS_11__tree_nodeINS_12__value_typeINS_12basic_stringIcNS_11char_traitsIcEENS_9allocatorIcEEEEiEEPvEENS_22__tree_node_destructorINS6_ISB_EEEEE5firstB7v160006Ev, symObjAddr: 0x73D0, symBinAddr: 0x100009370, symSize: 0x20 }
  - { offsetInCU: 0x16F5F, offset: 0x16F5F, size: 0x8, addend: 0x0, symName: __ZNKSt3__122__compressed_pair_elemIPNS_11__tree_nodeINS_12__value_typeINS_12basic_stringIcNS_11char_traitsIcEENS_9allocatorIcEEEEiEEPvEELi0ELb0EE5__getB7v160006Ev, symObjAddr: 0x73F0, symBinAddr: 0x100009390, symSize: 0x10 }
  - { offsetInCU: 0x16F85, offset: 0x16F85, size: 0x8, addend: 0x0, symName: __ZNSt3__117__compressed_pairIPNS_11__tree_nodeINS_12__value_typeINS_12basic_stringIcNS_11char_traitsIcEENS_9allocatorIcEEEEiEEPvEENS_22__tree_node_destructorINS6_ISB_EEEEE6secondB7v160006Ev, symObjAddr: 0x7400, symBinAddr: 0x1000093A0, symSize: 0x20 }
  - { offsetInCU: 0x16FAB, offset: 0x16FAB, size: 0x8, addend: 0x0, symName: __ZNSt3__122__compressed_pair_elemINS_22__tree_node_destructorINS_9allocatorINS_11__tree_nodeINS_12__value_typeINS_12basic_stringIcNS_11char_traitsIcEENS2_IcEEEEiEEPvEEEEEELi1ELb0EE5__getB7v160006Ev, symObjAddr: 0x7420, symBinAddr: 0x1000093C0, symSize: 0x10 }
  - { offsetInCU: 0x16FD1, offset: 0x16FD1, size: 0x8, addend: 0x0, symName: __ZNSt3__117__compressed_pairIPNS_11__tree_nodeINS_12__value_typeINS_12basic_stringIcNS_11char_traitsIcEENS_9allocatorIcEEEEiEEPvEENS_22__tree_node_destructorINS6_ISB_EEEEE5firstB7v160006Ev, symObjAddr: 0x7430, symBinAddr: 0x1000093D0, symSize: 0x20 }
  - { offsetInCU: 0x16FF7, offset: 0x16FF7, size: 0x8, addend: 0x0, symName: __ZNSt3__122__compressed_pair_elemIPNS_11__tree_nodeINS_12__value_typeINS_12basic_stringIcNS_11char_traitsIcEENS_9allocatorIcEEEEiEEPvEELi0ELb0EE5__getB7v160006Ev, symObjAddr: 0x7450, symBinAddr: 0x1000093F0, symSize: 0x10 }
  - { offsetInCU: 0x1701D, offset: 0x1701D, size: 0x8, addend: 0x0, symName: __ZNSt3__110unique_ptrINS_11__tree_nodeINS_12__value_typeINS_12basic_stringIcNS_11char_traitsIcEENS_9allocatorIcEEEEiEEPvEENS_22__tree_node_destructorINS6_ISB_EEEEED2B7v160006Ev, symObjAddr: 0x7460, symBinAddr: 0x100009400, symSize: 0x20 }
  - { offsetInCU: 0x17047, offset: 0x17047, size: 0x8, addend: 0x0, symName: __ZNSt3__110unique_ptrINS_11__tree_nodeINS_12__value_typeINS_12basic_stringIcNS_11char_traitsIcEENS_9allocatorIcEEEEiEEPvEENS_22__tree_node_destructorINS6_ISB_EEEEE5resetB7v160006EPSB_, symObjAddr: 0x7480, symBinAddr: 0x100009420, symSize: 0x70 }
  - { offsetInCU: 0x1708B, offset: 0x1708B, size: 0x8, addend: 0x0, symName: __ZNSt3__122__tree_node_destructorINS_9allocatorINS_11__tree_nodeINS_12__value_typeINS_12basic_stringIcNS_11char_traitsIcEENS1_IcEEEEiEEPvEEEEEclB7v160006EPSB_, symObjAddr: 0x74F0, symBinAddr: 0x100009490, symSize: 0x70 }
  - { offsetInCU: 0x170C0, offset: 0x170C0, size: 0x8, addend: 0x0, symName: __ZN5TrumpD2Ev, symObjAddr: 0x7560, symBinAddr: 0x100009500, symSize: 0x20 }
  - { offsetInCU: 0x170EC, offset: 0x170EC, size: 0x8, addend: 0x0, symName: __ZNSt3__13mapINS_12basic_stringIcNS_11char_traitsIcEENS_9allocatorIcEEEENS0_IS6_iNS_4lessIS6_EENS4_INS_4pairIKS6_iEEEEEES8_NS4_INS9_ISA_SD_EEEEED1B7v160006Ev, symObjAddr: 0x7580, symBinAddr: 0x100009520, symSize: 0x20 }
  - { offsetInCU: 0x17116, offset: 0x17116, size: 0x8, addend: 0x0, symName: __ZNSt3__13mapINS_12basic_stringIcNS_11char_traitsIcEENS_9allocatorIcEEEENS0_IS6_iNS_4lessIS6_EENS4_INS_4pairIKS6_iEEEEEES8_NS4_INS9_ISA_SD_EEEEED2B7v160006Ev, symObjAddr: 0x75A0, symBinAddr: 0x100009540, symSize: 0x20 }
  - { offsetInCU: 0x17140, offset: 0x17140, size: 0x8, addend: 0x0, symName: __ZNSt3__16__treeINS_12__value_typeINS_12basic_stringIcNS_11char_traitsIcEENS_9allocatorIcEEEENS_3mapIS7_iNS_4lessIS7_EENS5_INS_4pairIKS7_iEEEEEEEENS_19__map_value_compareIS7_SG_SA_Lb1EEENS5_ISG_EEED1Ev, symObjAddr: 0x75C0, symBinAddr: 0x100009560, symSize: 0x20 }
  - { offsetInCU: 0x1716C, offset: 0x1716C, size: 0x8, addend: 0x0, symName: __ZNSt3__16__treeINS_12__value_typeINS_12basic_stringIcNS_11char_traitsIcEENS_9allocatorIcEEEENS_3mapIS7_iNS_4lessIS7_EENS5_INS_4pairIKS7_iEEEEEEEENS_19__map_value_compareIS7_SG_SA_Lb1EEENS5_ISG_EEED2Ev, symObjAddr: 0x75E0, symBinAddr: 0x100009580, symSize: 0x30 }
  - { offsetInCU: 0x17198, offset: 0x17198, size: 0x8, addend: 0x0, symName: __ZNSt3__16__treeINS_12__value_typeINS_12basic_stringIcNS_11char_traitsIcEENS_9allocatorIcEEEENS_3mapIS7_iNS_4lessIS7_EENS5_INS_4pairIKS7_iEEEEEEEENS_19__map_value_compareIS7_SG_SA_Lb1EEENS5_ISG_EEE7destroyEPNS_11__tree_nodeISG_PvEE, symObjAddr: 0x7610, symBinAddr: 0x1000095B0, symSize: 0xB0 }
  - { offsetInCU: 0x171E4, offset: 0x171E4, size: 0x8, addend: 0x0, symName: __ZNKSt3__16__treeINS_12__value_typeINS_12basic_stringIcNS_11char_traitsIcEENS_9allocatorIcEEEENS_3mapIS7_iNS_4lessIS7_EENS5_INS_4pairIKS7_iEEEEEEEENS_19__map_value_compareIS7_SG_SA_Lb1EEENS5_ISG_EEE6__rootB7v160006Ev, symObjAddr: 0x76C0, symBinAddr: 0x100009660, symSize: 0x20 }
  - { offsetInCU: 0x1720A, offset: 0x1720A, size: 0x8, addend: 0x0, symName: __ZNSt3__16__treeINS_12__value_typeINS_12basic_stringIcNS_11char_traitsIcEENS_9allocatorIcEEEENS_3mapIS7_iNS_4lessIS7_EENS5_INS_4pairIKS7_iEEEEEEEENS_19__map_value_compareIS7_SG_SA_Lb1EEENS5_ISG_EEE12__node_allocB7v160006Ev, symObjAddr: 0x76E0, symBinAddr: 0x100009680, symSize: 0x20 }
  - { offsetInCU: 0x17230, offset: 0x17230, size: 0x8, addend: 0x0, symName: __ZNSt3__116allocator_traitsINS_9allocatorINS_11__tree_nodeINS_12__value_typeINS_12basic_stringIcNS_11char_traitsIcEENS1_IcEEEENS_3mapIS8_iNS_4lessIS8_EENS1_INS_4pairIKS8_iEEEEEEEEPvEEEEE7destroyB7v160006INSC_ISD_SG_EEvvEEvRSK_PT_, symObjAddr: 0x7700, symBinAddr: 0x1000096A0, symSize: 0x20 }
  - { offsetInCU: 0x1726A, offset: 0x1726A, size: 0x8, addend: 0x0, symName: __ZNSt3__122__tree_key_value_typesINS_12__value_typeINS_12basic_stringIcNS_11char_traitsIcEENS_9allocatorIcEEEENS_3mapIS7_iNS_4lessIS7_EENS5_INS_4pairIKS7_iEEEEEEEEE9__get_ptrB7v160006ERSG_, symObjAddr: 0x7720, symBinAddr: 0x1000096C0, symSize: 0x20 }
  - { offsetInCU: 0x1728E, offset: 0x1728E, size: 0x8, addend: 0x0, symName: __ZNSt3__116allocator_traitsINS_9allocatorINS_11__tree_nodeINS_12__value_typeINS_12basic_stringIcNS_11char_traitsIcEENS1_IcEEEENS_3mapIS8_iNS_4lessIS8_EENS1_INS_4pairIKS8_iEEEEEEEEPvEEEEE10deallocateB7v160006ERSK_PSJ_m, symObjAddr: 0x7740, symBinAddr: 0x1000096E0, symSize: 0x30 }
  - { offsetInCU: 0x172D0, offset: 0x172D0, size: 0x8, addend: 0x0, symName: __ZNSt3__117__compressed_pairINS_15__tree_end_nodeIPNS_16__tree_node_baseIPvEEEENS_9allocatorINS_11__tree_nodeINS_12__value_typeINS_12basic_stringIcNS_11char_traitsIcEENS7_IcEEEENS_3mapISE_iNS_4lessISE_EENS7_INS_4pairIKSE_iEEEEEEEES3_EEEEE6secondB7v160006Ev, symObjAddr: 0x7770, symBinAddr: 0x100009710, symSize: 0x20 }
  - { offsetInCU: 0x172F6, offset: 0x172F6, size: 0x8, addend: 0x0, symName: __ZNSt3__122__compressed_pair_elemINS_9allocatorINS_11__tree_nodeINS_12__value_typeINS_12basic_stringIcNS_11char_traitsIcEENS1_IcEEEENS_3mapIS8_iNS_4lessIS8_EENS1_INS_4pairIKS8_iEEEEEEEEPvEEEELi1ELb1EE5__getB7v160006Ev, symObjAddr: 0x7790, symBinAddr: 0x100009730, symSize: 0x10 }
  - { offsetInCU: 0x1731C, offset: 0x1731C, size: 0x8, addend: 0x0, symName: __ZNSt3__14pairIKNS_12basic_stringIcNS_11char_traitsIcEENS_9allocatorIcEEEENS_3mapIS6_iNS_4lessIS6_EENS4_INS0_IS7_iEEEEEEED1Ev, symObjAddr: 0x77A0, symBinAddr: 0x100009740, symSize: 0x20 }
  - { offsetInCU: 0x17348, offset: 0x17348, size: 0x8, addend: 0x0, symName: __ZNSt3__14pairIKNS_12basic_stringIcNS_11char_traitsIcEENS_9allocatorIcEEEENS_3mapIS6_iNS_4lessIS6_EENS4_INS0_IS7_iEEEEEEED2Ev, symObjAddr: 0x77C0, symBinAddr: 0x100009760, symSize: 0x30 }
  - { offsetInCU: 0x17374, offset: 0x17374, size: 0x8, addend: 0x0, symName: __ZNSt3__13mapINS_12basic_stringIcNS_11char_traitsIcEENS_9allocatorIcEEEEiNS_4lessIS6_EENS4_INS_4pairIKS6_iEEEEED1B7v160006Ev, symObjAddr: 0x77F0, symBinAddr: 0x100009790, symSize: 0x20 }
  - { offsetInCU: 0x1739E, offset: 0x1739E, size: 0x8, addend: 0x0, symName: __ZNSt3__13mapINS_12basic_stringIcNS_11char_traitsIcEENS_9allocatorIcEEEEiNS_4lessIS6_EENS4_INS_4pairIKS6_iEEEEED2B7v160006Ev, symObjAddr: 0x7810, symBinAddr: 0x1000097B0, symSize: 0x20 }
  - { offsetInCU: 0x173C8, offset: 0x173C8, size: 0x8, addend: 0x0, symName: __ZNSt3__16__treeINS_12__value_typeINS_12basic_stringIcNS_11char_traitsIcEENS_9allocatorIcEEEEiEENS_19__map_value_compareIS7_S8_NS_4lessIS7_EELb1EEENS5_IS8_EEED1Ev, symObjAddr: 0x7830, symBinAddr: 0x1000097D0, symSize: 0x20 }
  - { offsetInCU: 0x173F4, offset: 0x173F4, size: 0x8, addend: 0x0, symName: __ZNSt3__16__treeINS_12__value_typeINS_12basic_stringIcNS_11char_traitsIcEENS_9allocatorIcEEEEiEENS_19__map_value_compareIS7_S8_NS_4lessIS7_EELb1EEENS5_IS8_EEED2Ev, symObjAddr: 0x7850, symBinAddr: 0x1000097F0, symSize: 0x30 }
  - { offsetInCU: 0x17420, offset: 0x17420, size: 0x8, addend: 0x0, symName: __ZNSt3__112__value_typeINS_12basic_stringIcNS_11char_traitsIcEENS_9allocatorIcEEEENS_3mapIS6_iNS_4lessIS6_EENS4_INS_4pairIKS6_iEEEEEEE11__get_valueB7v160006Ev, symObjAddr: 0x7880, symBinAddr: 0x100009820, symSize: 0x20 }
  - { offsetInCU: 0x17446, offset: 0x17446, size: 0x8, addend: 0x0, symName: __ZNSt3__19allocatorINS_11__tree_nodeINS_12__value_typeINS_12basic_stringIcNS_11char_traitsIcEENS0_IcEEEENS_3mapIS7_iNS_4lessIS7_EENS0_INS_4pairIKS7_iEEEEEEEEPvEEE10deallocateB7v160006EPSI_m, symObjAddr: 0x78D0, symBinAddr: 0x100009870, symSize: 0x50 }
  - { offsetInCU: 0x17488, offset: 0x17488, size: 0x8, addend: 0x0, symName: __ZNKSt3__16__treeINS_12__value_typeINS_12basic_stringIcNS_11char_traitsIcEENS_9allocatorIcEEEENS_3mapIS7_iNS_4lessIS7_EENS5_INS_4pairIKS7_iEEEEEEEENS_19__map_value_compareIS7_SG_SA_Lb1EEENS5_ISG_EEE10__end_nodeB7v160006Ev, symObjAddr: 0x7920, symBinAddr: 0x1000098C0, symSize: 0x30 }
  - { offsetInCU: 0x174AE, offset: 0x174AE, size: 0x8, addend: 0x0, symName: __ZNKSt3__117__compressed_pairINS_15__tree_end_nodeIPNS_16__tree_node_baseIPvEEEENS_9allocatorINS_11__tree_nodeINS_12__value_typeINS_12basic_stringIcNS_11char_traitsIcEENS7_IcEEEENS_3mapISE_iNS_4lessISE_EENS7_INS_4pairIKSE_iEEEEEEEES3_EEEEE5firstB7v160006Ev, symObjAddr: 0x7950, symBinAddr: 0x1000098F0, symSize: 0x20 }
  - { offsetInCU: 0x174D4, offset: 0x174D4, size: 0x8, addend: 0x0, symName: __ZN11Poker_HandsD2Ev, symObjAddr: 0x7970, symBinAddr: 0x100009910, symSize: 0x20 }
  - { offsetInCU: 0x17500, offset: 0x17500, size: 0x8, addend: 0x0, symName: __ZNSt3__13mapINS_12basic_stringIcNS_11char_traitsIcEENS_9allocatorIcEEEENS_6vectorIiNS4_IiEEEENS_4lessIS6_EENS4_INS_4pairIKS6_S9_EEEEED1B7v160006Ev, symObjAddr: 0x7990, symBinAddr: 0x100009930, symSize: 0x20 }
  - { offsetInCU: 0x1752A, offset: 0x1752A, size: 0x8, addend: 0x0, symName: __ZNSt3__13mapINS_12basic_stringIcNS_11char_traitsIcEENS_9allocatorIcEEEENS_6vectorIiNS4_IiEEEENS_4lessIS6_EENS4_INS_4pairIKS6_S9_EEEEED2B7v160006Ev, symObjAddr: 0x79B0, symBinAddr: 0x100009950, symSize: 0x20 }
  - { offsetInCU: 0x17554, offset: 0x17554, size: 0x8, addend: 0x0, symName: __ZNSt3__16__treeINS_12__value_typeINS_12basic_stringIcNS_11char_traitsIcEENS_9allocatorIcEEEENS_6vectorIiNS5_IiEEEEEENS_19__map_value_compareIS7_SB_NS_4lessIS7_EELb1EEENS5_ISB_EEED1Ev, symObjAddr: 0x79D0, symBinAddr: 0x100009970, symSize: 0x20 }
  - { offsetInCU: 0x17580, offset: 0x17580, size: 0x8, addend: 0x0, symName: __ZNSt3__16__treeINS_12__value_typeINS_12basic_stringIcNS_11char_traitsIcEENS_9allocatorIcEEEENS_6vectorIiNS5_IiEEEEEENS_19__map_value_compareIS7_SB_NS_4lessIS7_EELb1EEENS5_ISB_EEED2Ev, symObjAddr: 0x79F0, symBinAddr: 0x100009990, symSize: 0x30 }
  - { offsetInCU: 0x175AC, offset: 0x175AC, size: 0x8, addend: 0x0, symName: __ZNSt3__16__treeINS_12__value_typeINS_12basic_stringIcNS_11char_traitsIcEENS_9allocatorIcEEEENS_6vectorIiNS5_IiEEEEEENS_19__map_value_compareIS7_SB_NS_4lessIS7_EELb1EEENS5_ISB_EEE7destroyEPNS_11__tree_nodeISB_PvEE, symObjAddr: 0x7A20, symBinAddr: 0x1000099C0, symSize: 0xA0 }
  - { offsetInCU: 0x175F8, offset: 0x175F8, size: 0x8, addend: 0x0, symName: __ZNSt3__112basic_stringIcNS_11char_traitsIcEENS_9allocatorIcEEEC2B7v160006IDnEEPKc, symObjAddr: 0x7AC0, symBinAddr: 0x100009A60, symSize: 0x60 }
  - { offsetInCU: 0x17636, offset: 0x17636, size: 0x8, addend: 0x0, symName: __ZNSt3__117__compressed_pairINS_12basic_stringIcNS_11char_traitsIcEENS_9allocatorIcEEE5__repES5_EC1B7v160006INS_18__default_init_tagESA_EEOT_OT0_, symObjAddr: 0x7B20, symBinAddr: 0x100009AC0, symSize: 0x30 }
  - { offsetInCU: 0x1768E, offset: 0x1768E, size: 0x8, addend: 0x0, symName: __ZNSt3__111char_traitsIcE6lengthEPKc, symObjAddr: 0x7B50, symBinAddr: 0x100009AF0, symSize: 0x30 }
  - { offsetInCU: 0x176B1, offset: 0x176B1, size: 0x8, addend: 0x0, symName: __ZNSt3__117__compressed_pairINS_12basic_stringIcNS_11char_traitsIcEENS_9allocatorIcEEE5__repES5_EC2B7v160006INS_18__default_init_tagESA_EEOT_OT0_, symObjAddr: 0x7B80, symBinAddr: 0x100009B20, symSize: 0x30 }
  - { offsetInCU: 0x17709, offset: 0x17709, size: 0x8, addend: 0x0, symName: __ZNSt3__122__compressed_pair_elemINS_12basic_stringIcNS_11char_traitsIcEENS_9allocatorIcEEE5__repELi0ELb0EEC2B7v160006ENS_18__default_init_tagE, symObjAddr: 0x7BB0, symBinAddr: 0x100009B50, symSize: 0x10 }
  - { offsetInCU: 0x1773D, offset: 0x1773D, size: 0x8, addend: 0x0, symName: __ZNSt3__122__compressed_pair_elemINS_9allocatorIcEELi1ELb1EEC2B7v160006ENS_18__default_init_tagE, symObjAddr: 0x7BC0, symBinAddr: 0x100009B60, symSize: 0x20 }
  - { offsetInCU: 0x17771, offset: 0x17771, size: 0x8, addend: 0x0, symName: __ZNSt3__19allocatorIcEC2B7v160006Ev, symObjAddr: 0x7BE0, symBinAddr: 0x100009B80, symSize: 0x20 }
  - { offsetInCU: 0x1779B, offset: 0x1779B, size: 0x8, addend: 0x0, symName: __ZNSt3__116__non_trivial_ifILb1ENS_9allocatorIcEEEC2B7v160006Ev, symObjAddr: 0x7C00, symBinAddr: 0x100009BA0, symSize: 0x10 }
  - { offsetInCU: 0x177C5, offset: 0x177C5, size: 0x8, addend: 0x0, symName: __ZNSt3__16__treeINS_12__value_typeINS_12basic_stringIcNS_11char_traitsIcEENS_9allocatorIcEEEENS_3mapIS7_iNS_4lessIS7_EENS5_INS_4pairIKS7_iEEEEEEEENS_19__map_value_compareIS7_SG_SA_Lb1EEENS5_ISG_EEE25__emplace_unique_key_argsIS7_JRKNS_21piecewise_construct_tENS_5tupleIJOS7_EEENSP_IJEEEEEENSB_INS_15__tree_iteratorISG_PNS_11__tree_nodeISG_PvEElEEbEERKT_DpOT0_, symObjAddr: 0x7C30, symBinAddr: 0x100009BD0, symSize: 0x100 }
  - { offsetInCU: 0x178A4, offset: 0x178A4, size: 0x8, addend: 0x0, symName: __ZNKSt3__115__tree_iteratorINS_12__value_typeINS_12basic_stringIcNS_11char_traitsIcEENS_9allocatorIcEEEENS_3mapIS7_iNS_4lessIS7_EENS5_INS_4pairIKS7_iEEEEEEEEPNS_11__tree_nodeISG_PvEElEptB7v160006Ev, symObjAddr: 0x7D30, symBinAddr: 0x100009CD0, symSize: 0x30 }
  - { offsetInCU: 0x178CA, offset: 0x178CA, size: 0x8, addend: 0x0, symName: __ZNSt3__16__treeINS_12__value_typeINS_12basic_stringIcNS_11char_traitsIcEENS_9allocatorIcEEEENS_3mapIS7_iNS_4lessIS7_EENS5_INS_4pairIKS7_iEEEEEEEENS_19__map_value_compareIS7_SG_SA_Lb1EEENS5_ISG_EEE12__find_equalIS7_EERPNS_16__tree_node_baseIPvEERPNS_15__tree_end_nodeISP_EERKT_, symObjAddr: 0x7D60, symBinAddr: 0x100009D00, symSize: 0x180 }
  - { offsetInCU: 0x17937, offset: 0x17937, size: 0x8, addend: 0x0, symName: __ZNSt3__16__treeINS_12__value_typeINS_12basic_stringIcNS_11char_traitsIcEENS_9allocatorIcEEEENS_3mapIS7_iNS_4lessIS7_EENS5_INS_4pairIKS7_iEEEEEEEENS_19__map_value_compareIS7_SG_SA_Lb1EEENS5_ISG_EEE16__construct_nodeIJRKNS_21piecewise_construct_tENS_5tupleIJOS7_EEENSP_IJEEEEEENS_10unique_ptrINS_11__tree_nodeISG_PvEENS_22__tree_node_destructorINS5_ISW_EEEEEEDpOT_, symObjAddr: 0x7EE0, symBinAddr: 0x100009E80, symSize: 0x120 }
  - { offsetInCU: 0x179C0, offset: 0x179C0, size: 0x8, addend: 0x0, symName: __ZNSt3__16__treeINS_12__value_typeINS_12basic_stringIcNS_11char_traitsIcEENS_9allocatorIcEEEENS_3mapIS7_iNS_4lessIS7_EENS5_INS_4pairIKS7_iEEEEEEEENS_19__map_value_compareIS7_SG_SA_Lb1EEENS5_ISG_EEE16__insert_node_atEPNS_15__tree_end_nodeIPNS_16__tree_node_baseIPvEEEERSP_SP_, symObjAddr: 0x8000, symBinAddr: 0x100009FA0, symSize: 0xC0 }
  - { offsetInCU: 0x17A15, offset: 0x17A15, size: 0x8, addend: 0x0, symName: __ZNKSt3__110unique_ptrINS_11__tree_nodeINS_12__value_typeINS_12basic_stringIcNS_11char_traitsIcEENS_9allocatorIcEEEENS_3mapIS8_iNS_4lessIS8_EENS6_INS_4pairIKS8_iEEEEEEEEPvEENS_22__tree_node_destructorINS6_ISJ_EEEEE3getB7v160006Ev, symObjAddr: 0x80C0, symBinAddr: 0x10000A060, symSize: 0x20 }
  - { offsetInCU: 0x17A3B, offset: 0x17A3B, size: 0x8, addend: 0x0, symName: __ZNSt3__110unique_ptrINS_11__tree_nodeINS_12__value_typeINS_12basic_stringIcNS_11char_traitsIcEENS_9allocatorIcEEEENS_3mapIS8_iNS_4lessIS8_EENS6_INS_4pairIKS8_iEEEEEEEEPvEENS_22__tree_node_destructorINS6_ISJ_EEEEE7releaseB7v160006Ev, symObjAddr: 0x80E0, symBinAddr: 0x10000A080, symSize: 0x40 }
  - { offsetInCU: 0x17A70, offset: 0x17A70, size: 0x8, addend: 0x0, symName: __ZNSt3__110unique_ptrINS_11__tree_nodeINS_12__value_typeINS_12basic_stringIcNS_11char_traitsIcEENS_9allocatorIcEEEENS_3mapIS8_iNS_4lessIS8_EENS6_INS_4pairIKS8_iEEEEEEEEPvEENS_22__tree_node_destructorINS6_ISJ_EEEEED1B7v160006Ev, symObjAddr: 0x8120, symBinAddr: 0x10000A0C0, symSize: 0x20 }
  - { offsetInCU: 0x17A9A, offset: 0x17A9A, size: 0x8, addend: 0x0, symName: __ZNSt3__115__tree_iteratorINS_12__value_typeINS_12basic_stringIcNS_11char_traitsIcEENS_9allocatorIcEEEENS_3mapIS7_iNS_4lessIS7_EENS5_INS_4pairIKS7_iEEEEEEEEPNS_11__tree_nodeISG_PvEElEC1B7v160006ESK_, symObjAddr: 0x8140, symBinAddr: 0x10000A0E0, symSize: 0x30 }
  - { offsetInCU: 0x17AD8, offset: 0x17AD8, size: 0x8, addend: 0x0, symName: __ZNSt3__14pairINS_15__tree_iteratorINS_12__value_typeINS_12basic_stringIcNS_11char_traitsIcEENS_9allocatorIcEEEENS_3mapIS8_iNS_4lessIS8_EENS6_INS0_IKS8_iEEEEEEEEPNS_11__tree_nodeISG_PvEElEEbEC1B7v160006ISL_RbLSI_0EEEOT_OT0_, symObjAddr: 0x8170, symBinAddr: 0x10000A110, symSize: 0x30 }
  - { offsetInCU: 0x17B36, offset: 0x17B36, size: 0x8, addend: 0x0, symName: __ZNKSt3__16__treeINS_12__value_typeINS_12basic_stringIcNS_11char_traitsIcEENS_9allocatorIcEEEENS_3mapIS7_iNS_4lessIS7_EENS5_INS_4pairIKS7_iEEEEEEEENS_19__map_value_compareIS7_SG_SA_Lb1EEENS5_ISG_EEE10__root_ptrEv, symObjAddr: 0x81A0, symBinAddr: 0x10000A140, symSize: 0x20 }
  - { offsetInCU: 0x17B5C, offset: 0x17B5C, size: 0x8, addend: 0x0, symName: __ZNSt3__16__treeINS_12__value_typeINS_12basic_stringIcNS_11char_traitsIcEENS_9allocatorIcEEEENS_3mapIS7_iNS_4lessIS7_EENS5_INS_4pairIKS7_iEEEEEEEENS_19__map_value_compareIS7_SG_SA_Lb1EEENS5_ISG_EEE10value_compB7v160006Ev, symObjAddr: 0x81C0, symBinAddr: 0x10000A160, symSize: 0x20 }
  - { offsetInCU: 0x17B82, offset: 0x17B82, size: 0x8, addend: 0x0, symName: __ZNKSt3__119__map_value_compareINS_12basic_stringIcNS_11char_traitsIcEENS_9allocatorIcEEEENS_12__value_typeIS6_NS_3mapIS6_iNS_4lessIS6_EENS4_INS_4pairIKS6_iEEEEEEEESA_Lb1EEclB7v160006ERSC_RKSG_, symObjAddr: 0x81E0, symBinAddr: 0x10000A180, symSize: 0x50 }
  - { offsetInCU: 0x17BC6, offset: 0x17BC6, size: 0x8, addend: 0x0, symName: __ZNKSt3__119__map_value_compareINS_12basic_stringIcNS_11char_traitsIcEENS_9allocatorIcEEEENS_12__value_typeIS6_NS_3mapIS6_iNS_4lessIS6_EENS4_INS_4pairIKS6_iEEEEEEEESA_Lb1EEclB7v160006ERKSG_RSC_, symObjAddr: 0x8230, symBinAddr: 0x10000A1D0, symSize: 0x40 }
  - { offsetInCU: 0x17C0A, offset: 0x17C0A, size: 0x8, addend: 0x0, symName: __ZNSt3__117__compressed_pairImNS_19__map_value_compareINS_12basic_stringIcNS_11char_traitsIcEENS_9allocatorIcEEEENS_12__value_typeIS7_NS_3mapIS7_iNS_4lessIS7_EENS5_INS_4pairIKS7_iEEEEEEEESB_Lb1EEEE6secondB7v160006Ev, symObjAddr: 0x8270, symBinAddr: 0x10000A210, symSize: 0x20 }
  - { offsetInCU: 0x17C30, offset: 0x17C30, size: 0x8, addend: 0x0, symName: __ZNSt3__122__compressed_pair_elemINS_19__map_value_compareINS_12basic_stringIcNS_11char_traitsIcEENS_9allocatorIcEEEENS_12__value_typeIS7_NS_3mapIS7_iNS_4lessIS7_EENS5_INS_4pairIKS7_iEEEEEEEESB_Lb1EEELi1ELb1EE5__getB7v160006Ev, symObjAddr: 0x8290, symBinAddr: 0x10000A230, symSize: 0x10 }
  - { offsetInCU: 0x17C56, offset: 0x17C56, size: 0x8, addend: 0x0, symName: __ZNKSt3__112__value_typeINS_12basic_stringIcNS_11char_traitsIcEENS_9allocatorIcEEEENS_3mapIS6_iNS_4lessIS6_EENS4_INS_4pairIKS6_iEEEEEEE11__get_valueB7v160006Ev, symObjAddr: 0x82A0, symBinAddr: 0x10000A240, symSize: 0x20 }
  - { offsetInCU: 0x17C7C, offset: 0x17C7C, size: 0x8, addend: 0x0, symName: __ZNSt3__116allocator_traitsINS_9allocatorINS_11__tree_nodeINS_12__value_typeINS_12basic_stringIcNS_11char_traitsIcEENS1_IcEEEENS_3mapIS8_iNS_4lessIS8_EENS1_INS_4pairIKS8_iEEEEEEEEPvEEEEE8allocateB7v160006ERSK_m, symObjAddr: 0x82F0, symBinAddr: 0x10000A290, symSize: 0x30 }
  - { offsetInCU: 0x17CAF, offset: 0x17CAF, size: 0x8, addend: 0x0, symName: __ZNSt3__122__tree_node_destructorINS_9allocatorINS_11__tree_nodeINS_12__value_typeINS_12basic_stringIcNS_11char_traitsIcEENS1_IcEEEENS_3mapIS8_iNS_4lessIS8_EENS1_INS_4pairIKS8_iEEEEEEEEPvEEEEEC1B7v160006ERSK_b, symObjAddr: 0x8320, symBinAddr: 0x10000A2C0, symSize: 0x40 }
  - { offsetInCU: 0x17CFC, offset: 0x17CFC, size: 0x8, addend: 0x0, symName: __ZNSt3__110unique_ptrINS_11__tree_nodeINS_12__value_typeINS_12basic_stringIcNS_11char_traitsIcEENS_9allocatorIcEEEENS_3mapIS8_iNS_4lessIS8_EENS6_INS_4pairIKS8_iEEEEEEEEPvEENS_22__tree_node_destructorINS6_ISJ_EEEEEC1B7v160006ILb1EvEEPSJ_NS_16__dependent_typeINS_27__unique_ptr_deleter_sfinaeISM_EEXT_EE20__good_rval_ref_typeE, symObjAddr: 0x8360, symBinAddr: 0x10000A300, symSize: 0x30 }
  - { offsetInCU: 0x17D4D, offset: 0x17D4D, size: 0x8, addend: 0x0, symName: __ZNSt3__116allocator_traitsINS_9allocatorINS_11__tree_nodeINS_12__value_typeINS_12basic_stringIcNS_11char_traitsIcEENS1_IcEEEENS_3mapIS8_iNS_4lessIS8_EENS1_INS_4pairIKS8_iEEEEEEEEPvEEEEE9constructB7v160006INSC_ISD_SG_EEJRKNS_21piecewise_construct_tENS_5tupleIJOS8_EEENSR_IJEEEEvEEvRSK_PT_DpOT0_, symObjAddr: 0x8390, symBinAddr: 0x10000A330, symSize: 0x40 }
  - { offsetInCU: 0x17DCC, offset: 0x17DCC, size: 0x8, addend: 0x0, symName: __ZNKSt3__110unique_ptrINS_11__tree_nodeINS_12__value_typeINS_12basic_stringIcNS_11char_traitsIcEENS_9allocatorIcEEEENS_3mapIS8_iNS_4lessIS8_EENS6_INS_4pairIKS8_iEEEEEEEEPvEENS_22__tree_node_destructorINS6_ISJ_EEEEEptB7v160006Ev, symObjAddr: 0x83D0, symBinAddr: 0x10000A370, symSize: 0x20 }
  - { offsetInCU: 0x17DF2, offset: 0x17DF2, size: 0x8, addend: 0x0, symName: __ZNSt3__110unique_ptrINS_11__tree_nodeINS_12__value_typeINS_12basic_stringIcNS_11char_traitsIcEENS_9allocatorIcEEEENS_3mapIS8_iNS_4lessIS8_EENS6_INS_4pairIKS8_iEEEEEEEEPvEENS_22__tree_node_destructorINS6_ISJ_EEEEE11get_deleterB7v160006Ev, symObjAddr: 0x83F0, symBinAddr: 0x10000A390, symSize: 0x20 }
  - { offsetInCU: 0x17E18, offset: 0x17E18, size: 0x8, addend: 0x0, symName: __ZNSt3__19allocatorINS_11__tree_nodeINS_12__value_typeINS_12basic_stringIcNS_11char_traitsIcEENS0_IcEEEENS_3mapIS7_iNS_4lessIS7_EENS0_INS_4pairIKS7_iEEEEEEEEPvEEE8allocateB7v160006Em, symObjAddr: 0x8410, symBinAddr: 0x10000A3B0, symSize: 0x50 }
  - { offsetInCU: 0x17E56, offset: 0x17E56, size: 0x8, addend: 0x0, symName: __ZNSt3__116allocator_traitsINS_9allocatorINS_11__tree_nodeINS_12__value_typeINS_12basic_stringIcNS_11char_traitsIcEENS1_IcEEEENS_3mapIS8_iNS_4lessIS8_EENS1_INS_4pairIKS8_iEEEEEEEEPvEEEEE8max_sizeB7v160006ISK_vEEmRKSK_, symObjAddr: 0x8460, symBinAddr: 0x10000A400, symSize: 0x20 }
  - { offsetInCU: 0x17E84, offset: 0x17E84, size: 0x8, addend: 0x0, symName: __ZNKSt3__19allocatorINS_11__tree_nodeINS_12__value_typeINS_12basic_stringIcNS_11char_traitsIcEENS0_IcEEEENS_3mapIS7_iNS_4lessIS7_EENS0_INS_4pairIKS7_iEEEEEEEEPvEEE8max_sizeB7v160006Ev, symObjAddr: 0x8480, symBinAddr: 0x10000A420, symSize: 0x20 }
  - { offsetInCU: 0x17EAA, offset: 0x17EAA, size: 0x8, addend: 0x0, symName: __ZNSt3__122__tree_node_destructorINS_9allocatorINS_11__tree_nodeINS_12__value_typeINS_12basic_stringIcNS_11char_traitsIcEENS1_IcEEEENS_3mapIS8_iNS_4lessIS8_EENS1_INS_4pairIKS8_iEEEEEEEEPvEEEEEC2B7v160006ERSK_b, symObjAddr: 0x84A0, symBinAddr: 0x10000A440, symSize: 0x30 }
  - { offsetInCU: 0x17EF2, offset: 0x17EF2, size: 0x8, addend: 0x0, symName: __ZNSt3__110unique_ptrINS_11__tree_nodeINS_12__value_typeINS_12basic_stringIcNS_11char_traitsIcEENS_9allocatorIcEEEENS_3mapIS8_iNS_4lessIS8_EENS6_INS_4pairIKS8_iEEEEEEEEPvEENS_22__tree_node_destructorINS6_ISJ_EEEEEC2B7v160006ILb1EvEEPSJ_NS_16__dependent_typeINS_27__unique_ptr_deleter_sfinaeISM_EEXT_EE20__good_rval_ref_typeE, symObjAddr: 0x84D0, symBinAddr: 0x10000A470, symSize: 0x40 }
  - { offsetInCU: 0x17F43, offset: 0x17F43, size: 0x8, addend: 0x0, symName: __ZNSt3__117__compressed_pairIPNS_11__tree_nodeINS_12__value_typeINS_12basic_stringIcNS_11char_traitsIcEENS_9allocatorIcEEEENS_3mapIS8_iNS_4lessIS8_EENS6_INS_4pairIKS8_iEEEEEEEEPvEENS_22__tree_node_destructorINS6_ISJ_EEEEEC1B7v160006IRSK_SN_EEOT_OT0_, symObjAddr: 0x8510, symBinAddr: 0x10000A4B0, symSize: 0x30 }
  - { offsetInCU: 0x17F9B, offset: 0x17F9B, size: 0x8, addend: 0x0, symName: __ZNSt3__117__compressed_pairIPNS_11__tree_nodeINS_12__value_typeINS_12basic_stringIcNS_11char_traitsIcEENS_9allocatorIcEEEENS_3mapIS8_iNS_4lessIS8_EENS6_INS_4pairIKS8_iEEEEEEEEPvEENS_22__tree_node_destructorINS6_ISJ_EEEEEC2B7v160006IRSK_SN_EEOT_OT0_, symObjAddr: 0x8540, symBinAddr: 0x10000A4E0, symSize: 0x40 }
  - { offsetInCU: 0x17FF3, offset: 0x17FF3, size: 0x8, addend: 0x0, symName: __ZNSt3__122__compressed_pair_elemIPNS_11__tree_nodeINS_12__value_typeINS_12basic_stringIcNS_11char_traitsIcEENS_9allocatorIcEEEENS_3mapIS8_iNS_4lessIS8_EENS6_INS_4pairIKS8_iEEEEEEEEPvEELi0ELb0EEC2B7v160006IRSK_vEEOT_, symObjAddr: 0x8580, symBinAddr: 0x10000A520, symSize: 0x20 }
  - { offsetInCU: 0x18035, offset: 0x18035, size: 0x8, addend: 0x0, symName: __ZNSt3__122__compressed_pair_elemINS_22__tree_node_destructorINS_9allocatorINS_11__tree_nodeINS_12__value_typeINS_12basic_stringIcNS_11char_traitsIcEENS2_IcEEEENS_3mapIS9_iNS_4lessIS9_EENS2_INS_4pairIKS9_iEEEEEEEEPvEEEEEELi1ELb0EEC2B7v160006ISM_vEEOT_, symObjAddr: 0x85A0, symBinAddr: 0x10000A540, symSize: 0x30 }
  - { offsetInCU: 0x18077, offset: 0x18077, size: 0x8, addend: 0x0, symName: __ZNSt3__19allocatorINS_11__tree_nodeINS_12__value_typeINS_12basic_stringIcNS_11char_traitsIcEENS0_IcEEEENS_3mapIS7_iNS_4lessIS7_EENS0_INS_4pairIKS7_iEEEEEEEEPvEEE9constructB7v160006INSB_ISC_SF_EEJRKNS_21piecewise_construct_tENS_5tupleIJOS7_EEENSP_IJEEEEEEvPT_DpOT0_, symObjAddr: 0x85D0, symBinAddr: 0x10000A570, symSize: 0x40 }
  - { offsetInCU: 0x180F3, offset: 0x180F3, size: 0x8, addend: 0x0, symName: __ZNSt3__14pairIKNS_12basic_stringIcNS_11char_traitsIcEENS_9allocatorIcEEEENS_3mapIS6_iNS_4lessIS6_EENS4_INS0_IS7_iEEEEEEEC1B7v160006IJOS6_EJEEENS_21piecewise_construct_tENS_5tupleIJDpT_EEENSI_IJDpT0_EEE, symObjAddr: 0x8610, symBinAddr: 0x10000A5B0, symSize: 0x40 }
  - { offsetInCU: 0x1815A, offset: 0x1815A, size: 0x8, addend: 0x0, symName: __ZNSt3__14pairIKNS_12basic_stringIcNS_11char_traitsIcEENS_9allocatorIcEEEENS_3mapIS6_iNS_4lessIS6_EENS4_INS0_IS7_iEEEEEEEC1B7v160006IJOS6_EJEJLm0EEJEEENS_21piecewise_construct_tERNS_5tupleIJDpT_EEERNSI_IJDpT0_EEENS_15__tuple_indicesIJXspT1_EEEENSR_IJXspT2_EEEE, symObjAddr: 0x8650, symBinAddr: 0x10000A5F0, symSize: 0x30 }
  - { offsetInCU: 0x181E7, offset: 0x181E7, size: 0x8, addend: 0x0, symName: __ZNSt3__14pairIKNS_12basic_stringIcNS_11char_traitsIcEENS_9allocatorIcEEEENS_3mapIS6_iNS_4lessIS6_EENS4_INS0_IS7_iEEEEEEEC2B7v160006IJOS6_EJEJLm0EEJEEENS_21piecewise_construct_tERNS_5tupleIJDpT_EEERNSI_IJDpT0_EEENS_15__tuple_indicesIJXspT1_EEEENSR_IJXspT2_EEEE, symObjAddr: 0x8680, symBinAddr: 0x10000A620, symSize: 0x50 }
  - { offsetInCU: 0x18274, offset: 0x18274, size: 0x8, addend: 0x0, symName: __ZNSt3__13mapINS_12basic_stringIcNS_11char_traitsIcEENS_9allocatorIcEEEEiNS_4lessIS6_EENS4_INS_4pairIKS6_iEEEEEC1B7v160006Ev, symObjAddr: 0x86D0, symBinAddr: 0x10000A670, symSize: 0x20 }
  - { offsetInCU: 0x1829E, offset: 0x1829E, size: 0x8, addend: 0x0, symName: __ZNSt3__13mapINS_12basic_stringIcNS_11char_traitsIcEENS_9allocatorIcEEEEiNS_4lessIS6_EENS4_INS_4pairIKS6_iEEEEEC2B7v160006Ev, symObjAddr: 0x86F0, symBinAddr: 0x10000A690, symSize: 0x30 }
  - { offsetInCU: 0x182C8, offset: 0x182C8, size: 0x8, addend: 0x0, symName: __ZNSt3__119__map_value_compareINS_12basic_stringIcNS_11char_traitsIcEENS_9allocatorIcEEEENS_12__value_typeIS6_iEENS_4lessIS6_EELb1EEC1B7v160006ESA_, symObjAddr: 0x8720, symBinAddr: 0x10000A6C0, symSize: 0x20 }
  - { offsetInCU: 0x18301, offset: 0x18301, size: 0x8, addend: 0x0, symName: __ZNSt3__16__treeINS_12__value_typeINS_12basic_stringIcNS_11char_traitsIcEENS_9allocatorIcEEEEiEENS_19__map_value_compareIS7_S8_NS_4lessIS7_EELb1EEENS5_IS8_EEEC1ERKSC_, symObjAddr: 0x8740, symBinAddr: 0x10000A6E0, symSize: 0x30 }
  - { offsetInCU: 0x1833C, offset: 0x1833C, size: 0x8, addend: 0x0, symName: __ZNSt3__119__map_value_compareINS_12basic_stringIcNS_11char_traitsIcEENS_9allocatorIcEEEENS_12__value_typeIS6_iEENS_4lessIS6_EELb1EEC2B7v160006ESA_, symObjAddr: 0x8770, symBinAddr: 0x10000A710, symSize: 0x10 }
  - { offsetInCU: 0x18375, offset: 0x18375, size: 0x8, addend: 0x0, symName: __ZNSt3__16__treeINS_12__value_typeINS_12basic_stringIcNS_11char_traitsIcEENS_9allocatorIcEEEEiEENS_19__map_value_compareIS7_S8_NS_4lessIS7_EELb1EEENS5_IS8_EEEC2ERKSC_, symObjAddr: 0x8780, symBinAddr: 0x10000A720, symSize: 0x80 }
  - { offsetInCU: 0x183B0, offset: 0x183B0, size: 0x8, addend: 0x0, symName: __ZNSt3__117__compressed_pairINS_15__tree_end_nodeIPNS_16__tree_node_baseIPvEEEENS_9allocatorINS_11__tree_nodeINS_12__value_typeINS_12basic_stringIcNS_11char_traitsIcEENS7_IcEEEEiEES3_EEEEEC1B7v160006ILb1EvEEv, symObjAddr: 0x8800, symBinAddr: 0x10000A7A0, symSize: 0x20 }
  - { offsetInCU: 0x183E5, offset: 0x183E5, size: 0x8, addend: 0x0, symName: __ZNSt3__117__compressed_pairImNS_19__map_value_compareINS_12basic_stringIcNS_11char_traitsIcEENS_9allocatorIcEEEENS_12__value_typeIS7_iEENS_4lessIS7_EELb1EEEEC1B7v160006IiRKSC_EEOT_OT0_, symObjAddr: 0x8820, symBinAddr: 0x10000A7C0, symSize: 0x30 }
  - { offsetInCU: 0x1843D, offset: 0x1843D, size: 0x8, addend: 0x0, symName: __ZNSt3__117__compressed_pairINS_15__tree_end_nodeIPNS_16__tree_node_baseIPvEEEENS_9allocatorINS_11__tree_nodeINS_12__value_typeINS_12basic_stringIcNS_11char_traitsIcEENS7_IcEEEEiEES3_EEEEEC2B7v160006ILb1EvEEv, symObjAddr: 0x8850, symBinAddr: 0x10000A7F0, symSize: 0x30 }
  - { offsetInCU: 0x18472, offset: 0x18472, size: 0x8, addend: 0x0, symName: __ZNSt3__122__compressed_pair_elemINS_9allocatorINS_11__tree_nodeINS_12__value_typeINS_12basic_stringIcNS_11char_traitsIcEENS1_IcEEEEiEEPvEEEELi1ELb1EEC2B7v160006ENS_16__value_init_tagE, symObjAddr: 0x8880, symBinAddr: 0x10000A820, symSize: 0x20 }
  - { offsetInCU: 0x184A6, offset: 0x184A6, size: 0x8, addend: 0x0, symName: __ZNSt3__19allocatorINS_11__tree_nodeINS_12__value_typeINS_12basic_stringIcNS_11char_traitsIcEENS0_IcEEEEiEEPvEEEC2B7v160006Ev, symObjAddr: 0x88A0, symBinAddr: 0x10000A840, symSize: 0x20 }
  - { offsetInCU: 0x184D0, offset: 0x184D0, size: 0x8, addend: 0x0, symName: __ZNSt3__116__non_trivial_ifILb1ENS_9allocatorINS_11__tree_nodeINS_12__value_typeINS_12basic_stringIcNS_11char_traitsIcEENS1_IcEEEEiEEPvEEEEEC2B7v160006Ev, symObjAddr: 0x88C0, symBinAddr: 0x10000A860, symSize: 0x10 }
  - { offsetInCU: 0x184FA, offset: 0x184FA, size: 0x8, addend: 0x0, symName: __ZNSt3__117__compressed_pairImNS_19__map_value_compareINS_12basic_stringIcNS_11char_traitsIcEENS_9allocatorIcEEEENS_12__value_typeIS7_iEENS_4lessIS7_EELb1EEEEC2B7v160006IiRKSC_EEOT_OT0_, symObjAddr: 0x88D0, symBinAddr: 0x10000A870, symSize: 0x40 }
  - { offsetInCU: 0x18552, offset: 0x18552, size: 0x8, addend: 0x0, symName: __ZNSt3__122__compressed_pair_elemINS_19__map_value_compareINS_12basic_stringIcNS_11char_traitsIcEENS_9allocatorIcEEEENS_12__value_typeIS7_iEENS_4lessIS7_EELb1EEELi1ELb1EEC2B7v160006IRKSC_vEEOT_, symObjAddr: 0x8910, symBinAddr: 0x10000A8B0, symSize: 0x10 }
  - { offsetInCU: 0x18594, offset: 0x18594, size: 0x8, addend: 0x0, symName: __ZNKSt3__117__compressed_pairIPNS_11__tree_nodeINS_12__value_typeINS_12basic_stringIcNS_11char_traitsIcEENS_9allocatorIcEEEENS_3mapIS8_iNS_4lessIS8_EENS6_INS_4pairIKS8_iEEEEEEEEPvEENS_22__tree_node_destructorINS6_ISJ_EEEEE5firstB7v160006Ev, symObjAddr: 0x8920, symBinAddr: 0x10000A8C0, symSize: 0x20 }
  - { offsetInCU: 0x185BA, offset: 0x185BA, size: 0x8, addend: 0x0, symName: __ZNKSt3__122__compressed_pair_elemIPNS_11__tree_nodeINS_12__value_typeINS_12basic_stringIcNS_11char_traitsIcEENS_9allocatorIcEEEENS_3mapIS8_iNS_4lessIS8_EENS6_INS_4pairIKS8_iEEEEEEEEPvEELi0ELb0EE5__getB7v160006Ev, symObjAddr: 0x8940, symBinAddr: 0x10000A8E0, symSize: 0x10 }
  - { offsetInCU: 0x185E0, offset: 0x185E0, size: 0x8, addend: 0x0, symName: __ZNSt3__117__compressed_pairIPNS_11__tree_nodeINS_12__value_typeINS_12basic_stringIcNS_11char_traitsIcEENS_9allocatorIcEEEENS_3mapIS8_iNS_4lessIS8_EENS6_INS_4pairIKS8_iEEEEEEEEPvEENS_22__tree_node_destructorINS6_ISJ_EEEEE6secondB7v160006Ev, symObjAddr: 0x8950, symBinAddr: 0x10000A8F0, symSize: 0x20 }
  - { offsetInCU: 0x18606, offset: 0x18606, size: 0x8, addend: 0x0, symName: __ZNSt3__122__compressed_pair_elemINS_22__tree_node_destructorINS_9allocatorINS_11__tree_nodeINS_12__value_typeINS_12basic_stringIcNS_11char_traitsIcEENS2_IcEEEENS_3mapIS9_iNS_4lessIS9_EENS2_INS_4pairIKS9_iEEEEEEEEPvEEEEEELi1ELb0EE5__getB7v160006Ev, symObjAddr: 0x8970, symBinAddr: 0x10000A910, symSize: 0x10 }
  - { offsetInCU: 0x1862C, offset: 0x1862C, size: 0x8, addend: 0x0, symName: __ZNSt3__16__treeINS_12__value_typeINS_12basic_stringIcNS_11char_traitsIcEENS_9allocatorIcEEEENS_3mapIS7_iNS_4lessIS7_EENS5_INS_4pairIKS7_iEEEEEEEENS_19__map_value_compareIS7_SG_SA_Lb1EEENS5_ISG_EEE4sizeB7v160006Ev, symObjAddr: 0x8980, symBinAddr: 0x10000A920, symSize: 0x20 }
  - { offsetInCU: 0x18652, offset: 0x18652, size: 0x8, addend: 0x0, symName: __ZNSt3__117__compressed_pairImNS_19__map_value_compareINS_12basic_stringIcNS_11char_traitsIcEENS_9allocatorIcEEEENS_12__value_typeIS7_NS_3mapIS7_iNS_4lessIS7_EENS5_INS_4pairIKS7_iEEEEEEEESB_Lb1EEEE5firstB7v160006Ev, symObjAddr: 0x89A0, symBinAddr: 0x10000A940, symSize: 0x20 }
  - { offsetInCU: 0x18678, offset: 0x18678, size: 0x8, addend: 0x0, symName: __ZNSt3__117__compressed_pairIPNS_11__tree_nodeINS_12__value_typeINS_12basic_stringIcNS_11char_traitsIcEENS_9allocatorIcEEEENS_3mapIS8_iNS_4lessIS8_EENS6_INS_4pairIKS8_iEEEEEEEEPvEENS_22__tree_node_destructorINS6_ISJ_EEEEE5firstB7v160006Ev, symObjAddr: 0x89C0, symBinAddr: 0x10000A960, symSize: 0x20 }
  - { offsetInCU: 0x1869E, offset: 0x1869E, size: 0x8, addend: 0x0, symName: __ZNSt3__122__compressed_pair_elemIPNS_11__tree_nodeINS_12__value_typeINS_12basic_stringIcNS_11char_traitsIcEENS_9allocatorIcEEEENS_3mapIS8_iNS_4lessIS8_EENS6_INS_4pairIKS8_iEEEEEEEEPvEELi0ELb0EE5__getB7v160006Ev, symObjAddr: 0x89E0, symBinAddr: 0x10000A980, symSize: 0x10 }
  - { offsetInCU: 0x186C4, offset: 0x186C4, size: 0x8, addend: 0x0, symName: __ZNSt3__110unique_ptrINS_11__tree_nodeINS_12__value_typeINS_12basic_stringIcNS_11char_traitsIcEENS_9allocatorIcEEEENS_3mapIS8_iNS_4lessIS8_EENS6_INS_4pairIKS8_iEEEEEEEEPvEENS_22__tree_node_destructorINS6_ISJ_EEEEED2B7v160006Ev, symObjAddr: 0x89F0, symBinAddr: 0x10000A990, symSize: 0x20 }
  - { offsetInCU: 0x186EE, offset: 0x186EE, size: 0x8, addend: 0x0, symName: __ZNSt3__110unique_ptrINS_11__tree_nodeINS_12__value_typeINS_12basic_stringIcNS_11char_traitsIcEENS_9allocatorIcEEEENS_3mapIS8_iNS_4lessIS8_EENS6_INS_4pairIKS8_iEEEEEEEEPvEENS_22__tree_node_destructorINS6_ISJ_EEEEE5resetB7v160006EPSJ_, symObjAddr: 0x8A10, symBinAddr: 0x10000A9B0, symSize: 0x70 }
  - { offsetInCU: 0x18732, offset: 0x18732, size: 0x8, addend: 0x0, symName: __ZNSt3__122__tree_node_destructorINS_9allocatorINS_11__tree_nodeINS_12__value_typeINS_12basic_stringIcNS_11char_traitsIcEENS1_IcEEEENS_3mapIS8_iNS_4lessIS8_EENS1_INS_4pairIKS8_iEEEEEEEEPvEEEEEclB7v160006EPSJ_, symObjAddr: 0x8A80, symBinAddr: 0x10000AA20, symSize: 0x80 }
  - { offsetInCU: 0x18767, offset: 0x18767, size: 0x8, addend: 0x0, symName: __ZNSt3__115__tree_iteratorINS_12__value_typeINS_12basic_stringIcNS_11char_traitsIcEENS_9allocatorIcEEEENS_3mapIS7_iNS_4lessIS7_EENS5_INS_4pairIKS7_iEEEEEEEEPNS_11__tree_nodeISG_PvEElEC2B7v160006ESK_, symObjAddr: 0x8B00, symBinAddr: 0x10000AAA0, symSize: 0x20 }
  - { offsetInCU: 0x187A0, offset: 0x187A0, size: 0x8, addend: 0x0, symName: __ZNSt3__14pairINS_15__tree_iteratorINS_12__value_typeINS_12basic_stringIcNS_11char_traitsIcEENS_9allocatorIcEEEENS_3mapIS8_iNS_4lessIS8_EENS6_INS0_IKS8_iEEEEEEEEPNS_11__tree_nodeISG_PvEElEEbEC2B7v160006ISL_RbLSI_0EEEOT_OT0_, symObjAddr: 0x8B20, symBinAddr: 0x10000AAC0, symSize: 0x30 }
  - { offsetInCU: 0x187FE, offset: 0x187FE, size: 0x8, addend: 0x0, symName: __ZNSt3__114pointer_traitsIPNS_12__value_typeINS_12basic_stringIcNS_11char_traitsIcEENS_9allocatorIcEEEENS_3mapIS7_iNS_4lessIS7_EENS5_INS_4pairIKS7_iEEEEEEEEE10pointer_toB7v160006ERSG_, symObjAddr: 0x8B50, symBinAddr: 0x10000AAF0, symSize: 0x10 }
  - { offsetInCU: 0x18821, offset: 0x18821, size: 0x8, addend: 0x0, symName: __ZNKSt3__115__tree_iteratorINS_12__value_typeINS_12basic_stringIcNS_11char_traitsIcEENS_9allocatorIcEEEENS_3mapIS7_iNS_4lessIS7_EENS5_INS_4pairIKS7_iEEEEEEEEPNS_11__tree_nodeISG_PvEElE8__get_npB7v160006Ev, symObjAddr: 0x8B60, symBinAddr: 0x10000AB00, symSize: 0x20 }
  - { offsetInCU: 0x18847, offset: 0x18847, size: 0x8, addend: 0x0, symName: __ZNSt3__16__treeINS_12__value_typeINS_12basic_stringIcNS_11char_traitsIcEENS_9allocatorIcEEEEiEENS_19__map_value_compareIS7_S8_NS_4lessIS7_EELb1EEENS5_IS8_EEE5beginB7v160006Ev, symObjAddr: 0x8B80, symBinAddr: 0x10000AB20, symSize: 0x30 }
  - { offsetInCU: 0x1886D, offset: 0x1886D, size: 0x8, addend: 0x0, symName: __ZNSt3__114__map_iteratorINS_15__tree_iteratorINS_12__value_typeINS_12basic_stringIcNS_11char_traitsIcEENS_9allocatorIcEEEEiEEPNS_11__tree_nodeIS9_PvEElEEEC1B7v160006ESE_, symObjAddr: 0x8BB0, symBinAddr: 0x10000AB50, symSize: 0x30 }
  - { offsetInCU: 0x188A6, offset: 0x188A6, size: 0x8, addend: 0x0, symName: __ZNSt3__115__tree_iteratorINS_12__value_typeINS_12basic_stringIcNS_11char_traitsIcEENS_9allocatorIcEEEEiEEPNS_11__tree_nodeIS8_PvEElEC1B7v160006EPNS_15__tree_end_nodeIPNS_16__tree_node_baseISA_EEEE, symObjAddr: 0x8BE0, symBinAddr: 0x10000AB80, symSize: 0x30 }
  - { offsetInCU: 0x188DF, offset: 0x188DF, size: 0x8, addend: 0x0, symName: __ZNSt3__115__tree_iteratorINS_12__value_typeINS_12basic_stringIcNS_11char_traitsIcEENS_9allocatorIcEEEEiEEPNS_11__tree_nodeIS8_PvEElEC2B7v160006EPNS_15__tree_end_nodeIPNS_16__tree_node_baseISA_EEEE, symObjAddr: 0x8C10, symBinAddr: 0x10000ABB0, symSize: 0x20 }
  - { offsetInCU: 0x18918, offset: 0x18918, size: 0x8, addend: 0x0, symName: __ZNSt3__114__map_iteratorINS_15__tree_iteratorINS_12__value_typeINS_12basic_stringIcNS_11char_traitsIcEENS_9allocatorIcEEEEiEEPNS_11__tree_nodeIS9_PvEElEEEC2B7v160006ESE_, symObjAddr: 0x8C30, symBinAddr: 0x10000ABD0, symSize: 0x20 }
  - { offsetInCU: 0x18951, offset: 0x18951, size: 0x8, addend: 0x0, symName: __ZNSt3__16__treeINS_12__value_typeINS_12basic_stringIcNS_11char_traitsIcEENS_9allocatorIcEEEEiEENS_19__map_value_compareIS7_S8_NS_4lessIS7_EELb1EEENS5_IS8_EEE3endB7v160006Ev, symObjAddr: 0x8C50, symBinAddr: 0x10000ABF0, symSize: 0x30 }
  - { offsetInCU: 0x18977, offset: 0x18977, size: 0x8, addend: 0x0, symName: __ZNSt3__115__tree_iteratorINS_12__value_typeINS_12basic_stringIcNS_11char_traitsIcEENS_9allocatorIcEEEEiEEPNS_11__tree_nodeIS8_PvEElEppB7v160006Ev, symObjAddr: 0x8CE0, symBinAddr: 0x10000AC80, symSize: 0x30 }
  - { offsetInCU: 0x1899D, offset: 0x1899D, size: 0x8, addend: 0x0, symName: __ZNKSt3__115__tree_iteratorINS_12__value_typeINS_12basic_stringIcNS_11char_traitsIcEENS_9allocatorIcEEEEiEEPNS_11__tree_nodeIS8_PvEElEptB7v160006Ev, symObjAddr: 0x8DC0, symBinAddr: 0x10000AD60, symSize: 0x30 }
  - { offsetInCU: 0x189C3, offset: 0x189C3, size: 0x8, addend: 0x0, symName: __ZNSt3__114pointer_traitsIPNS_12__value_typeINS_12basic_stringIcNS_11char_traitsIcEENS_9allocatorIcEEEEiEEE10pointer_toB7v160006ERS8_, symObjAddr: 0x8DF0, symBinAddr: 0x10000AD90, symSize: 0x10 }
  - { offsetInCU: 0x189E6, offset: 0x189E6, size: 0x8, addend: 0x0, symName: __ZNKSt3__115__tree_iteratorINS_12__value_typeINS_12basic_stringIcNS_11char_traitsIcEENS_9allocatorIcEEEEiEEPNS_11__tree_nodeIS8_PvEElE8__get_npB7v160006Ev, symObjAddr: 0x8E00, symBinAddr: 0x10000ADA0, symSize: 0x20 }
  - { offsetInCU: 0x18A2A, offset: 0x18A2A, size: 0x8, addend: 0x0, symName: __ZNKSt3__113basic_ostreamIcNS_11char_traitsIcEEE6sentrycvbB7v160006Ev, symObjAddr: 0x9010, symBinAddr: 0x10000AFB0, symSize: 0x20 }
  - { offsetInCU: 0x18A50, offset: 0x18A50, size: 0x8, addend: 0x0, symName: __ZNSt3__119ostreambuf_iteratorIcNS_11char_traitsIcEEEC1B7v160006ERNS_13basic_ostreamIcS2_EE, symObjAddr: 0x9250, symBinAddr: 0x10000B1F0, symSize: 0x30 }
  - { offsetInCU: 0x18A88, offset: 0x18A88, size: 0x8, addend: 0x0, symName: __ZNKSt3__18ios_base5flagsB7v160006Ev, symObjAddr: 0x9280, symBinAddr: 0x10000B220, symSize: 0x20 }
  - { offsetInCU: 0x18AB0, offset: 0x18AB0, size: 0x8, addend: 0x0, symName: __ZNKSt3__19basic_iosIcNS_11char_traitsIcEEE4fillB7v160006Ev, symObjAddr: 0x92A0, symBinAddr: 0x10000B240, symSize: 0x70 }
  - { offsetInCU: 0x18AD8, offset: 0x18AD8, size: 0x8, addend: 0x0, symName: __ZNKSt3__119ostreambuf_iteratorIcNS_11char_traitsIcEEE6failedB7v160006Ev, symObjAddr: 0x9310, symBinAddr: 0x10000B2B0, symSize: 0x20 }
  - { offsetInCU: 0x18AFE, offset: 0x18AFE, size: 0x8, addend: 0x0, symName: __ZNSt3__19basic_iosIcNS_11char_traitsIcEEE8setstateB7v160006Ej, symObjAddr: 0x9330, symBinAddr: 0x10000B2D0, symSize: 0x30 }
  - { offsetInCU: 0x18B33, offset: 0x18B33, size: 0x8, addend: 0x0, symName: __ZNKSt3__18ios_base5widthB7v160006Ev, symObjAddr: 0x9360, symBinAddr: 0x10000B300, symSize: 0x20 }
  - { offsetInCU: 0x18B5B, offset: 0x18B5B, size: 0x8, addend: 0x0, symName: __ZNSt3__115basic_streambufIcNS_11char_traitsIcEEE5sputnB7v160006EPKcl, symObjAddr: 0x9380, symBinAddr: 0x10000B320, symSize: 0x30 }
  - { offsetInCU: 0x18B9D, offset: 0x18B9D, size: 0x8, addend: 0x0, symName: __ZNSt3__112basic_stringIcNS_11char_traitsIcEENS_9allocatorIcEEEC1B7v160006Emc, symObjAddr: 0x93B0, symBinAddr: 0x10000B350, symSize: 0x30 }
  - { offsetInCU: 0x18BE5, offset: 0x18BE5, size: 0x8, addend: 0x0, symName: __ZNSt3__112basic_stringIcNS_11char_traitsIcEENS_9allocatorIcEEE4dataB7v160006Ev, symObjAddr: 0x93E0, symBinAddr: 0x10000B380, symSize: 0x30 }
  - { offsetInCU: 0x18C0B, offset: 0x18C0B, size: 0x8, addend: 0x0, symName: __ZNSt3__18ios_base5widthB7v160006El, symObjAddr: 0x9410, symBinAddr: 0x10000B3B0, symSize: 0x30 }
  - { offsetInCU: 0x18C51, offset: 0x18C51, size: 0x8, addend: 0x0, symName: __ZNSt3__112basic_stringIcNS_11char_traitsIcEENS_9allocatorIcEEEC2B7v160006Emc, symObjAddr: 0x9440, symBinAddr: 0x10000B3E0, symSize: 0x50 }
  - { offsetInCU: 0x18C99, offset: 0x18C99, size: 0x8, addend: 0x0, symName: __ZNSt3__112basic_stringIcNS_11char_traitsIcEENS_9allocatorIcEEE13__get_pointerB7v160006Ev, symObjAddr: 0x94A0, symBinAddr: 0x10000B440, symSize: 0x50 }
  - { offsetInCU: 0x18CBF, offset: 0x18CBF, size: 0x8, addend: 0x0, symName: __ZNSt3__112basic_stringIcNS_11char_traitsIcEENS_9allocatorIcEEE18__get_long_pointerB7v160006Ev, symObjAddr: 0x94F0, symBinAddr: 0x10000B490, symSize: 0x20 }
  - { offsetInCU: 0x18CE5, offset: 0x18CE5, size: 0x8, addend: 0x0, symName: __ZNSt3__112basic_stringIcNS_11char_traitsIcEENS_9allocatorIcEEE19__get_short_pointerB7v160006Ev, symObjAddr: 0x9510, symBinAddr: 0x10000B4B0, symSize: 0x30 }
  - { offsetInCU: 0x18D0B, offset: 0x18D0B, size: 0x8, addend: 0x0, symName: __ZNSt3__114pointer_traitsIPcE10pointer_toB7v160006ERc, symObjAddr: 0x9540, symBinAddr: 0x10000B4E0, symSize: 0x10 }
  - { offsetInCU: 0x18D2E, offset: 0x18D2E, size: 0x8, addend: 0x0, symName: __ZNSt3__119ostreambuf_iteratorIcNS_11char_traitsIcEEEC2B7v160006ERNS_13basic_ostreamIcS2_EE, symObjAddr: 0x9550, symBinAddr: 0x10000B4F0, symSize: 0x50 }
  - { offsetInCU: 0x18D66, offset: 0x18D66, size: 0x8, addend: 0x0, symName: __ZNKSt3__19basic_iosIcNS_11char_traitsIcEEE5rdbufB7v160006Ev, symObjAddr: 0x95A0, symBinAddr: 0x10000B540, symSize: 0x20 }
  - { offsetInCU: 0x18D8E, offset: 0x18D8E, size: 0x8, addend: 0x0, symName: __ZNKSt3__18ios_base5rdbufB7v160006Ev, symObjAddr: 0x95C0, symBinAddr: 0x10000B560, symSize: 0x20 }
  - { offsetInCU: 0x18DB4, offset: 0x18DB4, size: 0x8, addend: 0x0, symName: __ZNSt3__111char_traitsIcE11eq_int_typeEii, symObjAddr: 0x95E0, symBinAddr: 0x10000B580, symSize: 0x20 }
  - { offsetInCU: 0x18DE5, offset: 0x18DE5, size: 0x8, addend: 0x0, symName: __ZNSt3__111char_traitsIcE3eofEv, symObjAddr: 0x9600, symBinAddr: 0x10000B5A0, symSize: 0x10 }
  - { offsetInCU: 0x18DF9, offset: 0x18DF9, size: 0x8, addend: 0x0, symName: __ZNKSt3__19basic_iosIcNS_11char_traitsIcEEE5widenB7v160006Ec, symObjAddr: 0x9610, symBinAddr: 0x10000B5B0, symSize: 0x80 }
  - { offsetInCU: 0x18E67, offset: 0x18E67, size: 0x8, addend: 0x0, symName: __ZNKSt3__15ctypeIcE5widenB7v160006Ec, symObjAddr: 0x96C0, symBinAddr: 0x10000B660, symSize: 0x30 }
  - { offsetInCU: 0x18E9C, offset: 0x18E9C, size: 0x8, addend: 0x0, symName: __ZNSt3__18ios_base8setstateB7v160006Ej, symObjAddr: 0x96F0, symBinAddr: 0x10000B690, symSize: 0x24 }
...
